

Microchip MPLAB XC8 Assembler V2.46 build 20240104201356 
                                                                                               Sun Jun 01 18:16:22 2025

Microchip MPLAB XC8 C Compiler v2.46 (Free license) build 20240104201356 Og1 
     1                           	processor	18F25K42
     2                           	fnconf	rparam,??,?,0
     3                           	pagewidth 120
     4                           	opt	flic
     5                           	psect	smallconst,global,reloc=2,class=SMALLCONST,delta=1,noexec
     6                           	psect	nvCOMRAM,global,class=COMRAM,space=1,delta=1,lowdata,noexec
     7                           	psect	cinit,global,reloc=2,class=CODE,delta=1
     8                           	psect	bssCOMRAM,global,class=COMRAM,space=1,delta=1,lowdata,noexec
     9                           	psect	bssBANK0,global,class=BANK0,space=1,delta=1,lowdata,noexec
    10                           	psect	cstackCOMRAM,global,class=COMRAM,space=1,delta=1,lowdata,noexec
    11                           	psect	text0,global,reloc=2,class=CODE,delta=1
    12                           	psect	text1,global,reloc=2,class=CODE,delta=1
    13                           	psect	text2,global,reloc=2,class=CODE,delta=1
    14                           	psect	text3,global,reloc=2,class=CODE,delta=1
    15                           	psect	text4,global,reloc=2,class=CODE,delta=1
    16                           	psect	text5,global,reloc=2,class=CODE,delta=1
    17                           	psect	text6,global,reloc=2,class=CODE,delta=1
    18                           	psect	text7,global,reloc=2,class=CODE,delta=1
    19                           	psect	text8,global,reloc=2,class=CODE,delta=1
    20                           	psect	text9,global,reloc=2,class=CODE,delta=1
    21                           	psect	text10,global,reloc=2,class=CODE,delta=1
    22                           	psect	text11,global,reloc=2,class=CODE,delta=1
    23                           	psect	text12,global,reloc=2,class=CODE,delta=1
    24                           	psect	text13,global,reloc=2,class=CODE,delta=1
    25                           	psect	text14,global,reloc=2,class=CODE,delta=1
    26                           	psect	text15,global,reloc=2,class=CODE,delta=1
    27                           	psect	text16,global,reloc=2,class=CODE,delta=1
    28                           	psect	text17,global,reloc=2,class=CODE,delta=1
    29                           	psect	text18,global,reloc=2,class=CODE,delta=1
    30                           	psect	text19,global,reloc=2,class=CODE,delta=1
    31                           	psect	text20,global,reloc=2,class=CODE,delta=1
    32                           	psect	text21,global,reloc=2,class=CODE,delta=1
    33                           	psect	text22,global,reloc=2,class=CODE,delta=1
    34                           	psect	text23,global,reloc=2,class=CODE,delta=1
    35                           	psect	text24,global,reloc=2,class=CODE,delta=1
    36                           	psect	text25,global,reloc=2,class=CODE,delta=1
    37                           	psect	text26,global,reloc=2,class=CODE,delta=1
    38                           	psect	text27,global,reloc=2,class=CODE,delta=1
    39                           	psect	text28,global,reloc=2,class=CODE,delta=1
    40                           	psect	text29,global,reloc=2,class=CODE,delta=1
    41                           	psect	text30,global,reloc=2,class=CODE,delta=1
    42                           	psect	text31,global,reloc=2,class=CODE,delta=1
    43                           	psect	text32,global,reloc=2,class=CODE,delta=1
    44                           	psect	text33,global,reloc=2,class=CODE,delta=1
    45                           	psect	ivt0x8,global,reloc=2,class=CODE,delta=1,noexec,keep,optim=
    46                           	psect	intsave_regs,global,class=BIGRAM,space=1,delta=1,noexec
    47                           	psect	rparam,global,class=COMRAM,space=1,delta=1,noexec
    48                           	psect	idloc,global,abs,ovrld,class=IDLOC,space=5,delta=1,noexec
    49                           	psect	config,global,abs,ovrld,class=CONFIG,space=4,delta=1,noexec
    50   000000                     
    51                           ; Version 2.35
    52                           ; Generated 05/05/2021 GMT
    53                           ; 
    54                           ; Copyright © 2021, Microchip Technology Inc. and its subsidiaries ("Microchip")
    55                           ; All rights reserved.
    56                           ; 
    57                           ; This software is developed by Microchip Technology Inc. and its subsidiaries ("Microch
      +                          ip").
    58                           ; 
    59                           ; Redistribution and use in source and binary forms, with or without modification, are
    60                           ; permitted provided that the following conditions are met:
    61                           ; 
    62                           ;     1. Redistributions of source code must retain the above copyright notice, this lis
      +                          t of
    63                           ;        conditions and the following disclaimer.
    64                           ; 
    65                           ;     2. Redistributions in binary form must reproduce the above copyright notice, this 
      +                          list
    66                           ;        of conditions and the following disclaimer in the documentation and/or other
    67                           ;        materials provided with the distribution. Publication is not required when
    68                           ;        this file is used in an embedded application.
    69                           ; 
    70                           ;     3. Microchip's name may not be used to endorse or promote products derived from th
      +                          is
    71                           ;        software without specific prior written permission.
    72                           ; 
    73                           ; THIS SOFTWARE IS PROVIDED BY MICROCHIP "AS IS" AND ANY EXPRESS OR IMPLIED WARRANTIES,
    74                           ; INCLUDING, BUT NOT LIMITED TO, THE IMPLIED WARRANTIES OF MERCHANTABILITY AND FITNESS F
      +                          OR
    75                           ; PURPOSE ARE DISCLAIMED.  IN NO EVENT SHALL MICROCHIP BE LIABLE FOR ANY DIRECT, INDIREC
      +                          T,
    76                           ; INCIDENTAL, SPECIAL, EXEMPLARY, OR CONSEQUENTIAL DAMAGES (INCLUDING BUT NOT LIMITED TO
    77                           ; PROCUREMENT OF SUBSTITUTE GOODS OR SERVICES; LOSS OF USE, DATA OR PROFITS; OR BUSINESS
    78                           ; INTERRUPTION) HOWSOEVER CAUSED AND ON ANY THEORY OF LIABILITY, WHETHER IN CONTRACT, ST
      +                          RICT
    79                           ; LIABILITY, OR TORT (INCLUDING NEGLIGENCE OR OTHERWISE) ARISING IN ANY WAY OUT OF THE U
      +                          SE OF
    80                           ; THIS SOFTWARE, EVEN IF ADVISED OF THE POSSIBILITY OF SUCH DAMAGE.
    81                           ; 
    82                           ; 
    83                           ; Code-generator required, PIC18F25K42 Definitions
    84                           ; 
    85                           ; SFR Addresses
    86   000000                     
    87                           	psect	smallconst
    88   000800                     __psmallconst:
    89                           	callstack 0
    90   000800  00                 	db	0
    91   000801                     _pwm_table:
    92                           	callstack 0
    93   000801  0000               	dw	0
    94   000803  0001               	dw	1
    95   000805  0002               	dw	2
    96   000807  0002               	dw	2
    97   000809  0002               	dw	2
    98   00080B  0003               	dw	3
    99   00080D  0003               	dw	3
   100   00080F  0004               	dw	4
   101   000811  0005               	dw	5
   102   000813  0006               	dw	6
   103   000815  0007               	dw	7
   104   000817  0008               	dw	8
   105   000819  000A               	dw	10
   106   00081B  000B               	dw	11
   107   00081D  000D               	dw	13
   108   00081F  0010               	dw	16
   109   000821  0013               	dw	19
   110   000823  0017               	dw	23
   111   000825  001B               	dw	27
   112   000827  0020               	dw	32
   113   000829  0026               	dw	38
   114   00082B  002D               	dw	45
   115   00082D  0036               	dw	54
   116   00082F  0040               	dw	64
   117   000831  004C               	dw	76
   118   000833  005B               	dw	91
   119   000835  006C               	dw	108
   120   000837  0080               	dw	128
   121   000839  0098               	dw	152
   122   00083B  00B5               	dw	181
   123   00083D  00D7               	dw	215
   124   00083F  00FF               	dw	255
   125   000841                     __end_of_pwm_table:
   126                           	callstack 0
   127   000000                     _T4CON	set	16288
   128   000000                     _T2CON	set	16300
   129   000000                     _PIR4bits	set	14756
   130   000000                     _PIE4bits	set	14740
   131   000000                     _PIR5bits	set	14757
   132   000000                     _PIE5bits	set	14741
   133   000000                     _IPR4bits	set	14724
   134   000000                     _T0CON0	set	16312
   135   000000                     _OSCTUNE	set	14814
   136   000000                     _OSCFRQ	set	14815
   137   000841                     STR_1:
   138   000841  31                 	db	49	;'1'
   139   000842  30                 	db	48	;'0'
   140   000843  33                 	db	51	;'3'
   141   000844  00                 	db	0
   142   000845  00                 	db	0	; dummy byte at the end
   143   000000                     
   144                           	psect	nvCOMRAM
   145   000049                     __pnvCOMRAM:
   146                           	callstack 0
   147   000049                     _TMR4_InterruptHandler:
   148                           	callstack 0
   149   000049                     	ds	2
   150   00004B                     _TMR2_InterruptHandler:
   151                           	callstack 0
   152   00004B                     	ds	2
   153   00004D                     _INT1_InterruptHandler:
   154                           	callstack 0
   155   00004D                     	ds	2
   156   00004F                     _TMR0_InterruptHandler:
   157                           	callstack 0
   158   00004F                     	ds	2
   159   000000                     _LATBbits	set	16315
   160   000000                     _PR4	set	16287
   161   000000                     _TMR4	set	16286
   162   000000                     _T4CONbits	set	16288
   163   000000                     _T4RSTbits	set	16291
   164   000000                     _T4HLTbits	set	16289
   165   000000                     _PR2	set	16299
   166   000000                     _TMR2	set	16298
   167   000000                     _T2CONbits	set	16300
   168   000000                     _T2RSTbits	set	16303
   169   000000                     _T2HLTbits	set	16301
   170   000000                     _T0CON0bits	set	16312
   171   000000                     _IPR3bits	set	14723
   172   000000                     _IPR5bits	set	14725
   173   000000                     _PIE3bits	set	14739
   174   000000                     _PIR3bits	set	14755
   175   000000                     _PMD0	set	14784
   176   000000                     _OSCCON1	set	14809
   177   000000                     _ANSELA	set	14912
   178   000000                     _ANSELB	set	14928
   179   000000                     _ANSELC	set	14944
   180   000000                     _LATA	set	16314
   181   000000                     _TRISA	set	16322
   182   000000                     _LATC	set	16316
   183   000000                     _LATB	set	16315
   184   000000                     _PORTBbits	set	16331
   185   000000                     _INTCON0bits	set	16338
   186   000000                     _TRISC	set	16324
   187   000000                     _TRISB	set	16323
   188   000000                     _INLVLC	set	14948
   189   000000                     _SLRCONC	set	14947
   190   000000                     _ODCONC	set	14946
   191   000000                     _RC3I2C	set	14954
   192   000000                     _WPUC	set	14945
   193   000000                     _WPUE	set	14977
   194   000000                     _INLVLB	set	14932
   195   000000                     _SLRCONB	set	14931
   196   000000                     _ODCONB	set	14930
   197   000000                     _RB1I2C	set	14938
   198   000000                     _WPUB	set	14929
   199   000000                     _INLVLA	set	14916
   200   000000                     _SLRCONA	set	14915
   201   000000                     _ODCONA	set	14914
   202   000000                     _WPUA	set	14913
   203   000000                     _INLVLE	set	14980
   204   000000                     _RB2I2C	set	14939
   205   000000                     _RC4I2C	set	14955
   206   000000                     _INT1PPS	set	15041
   207   000000                     _T4TMR	set	16286
   208   000000                     _T4PR	set	16287
   209   000000                     _T4HLT	set	16289
   210   000000                     _T4CLKCON	set	16290
   211   000000                     _T2TMR	set	16298
   212   000000                     _T2PR	set	16299
   213   000000                     _T2HLT	set	16301
   214   000000                     _T2CLKCON	set	16302
   215   000000                     _TMR0L	set	16310
   216   000000                     _TMR0H	set	16311
   217   000000                     _T0CON1	set	16313
   218   000000                     _OSCCON3	set	14811
   219   000000                     _OSCEN	set	14813
   220   000000                     _PMD7	set	14791
   221   000000                     _PMD6	set	14790
   222   000000                     _PMD5	set	14789
   223   000000                     _PMD4	set	14788
   224   000000                     _PMD3	set	14787
   225   000000                     _PMD2	set	14786
   226   000000                     _PMD1	set	14785
   227   000000                     _IPR7bits	set	14727
   228   000000                     _PIE7bits	set	14743
   229   000000                     _PIR7bits	set	14759
   230   000000                     _T2RST	set	16303
   231   000000                     _T4RST	set	16291
   232                           
   233                           ; #config settings
   234                           
   235                           	psect	cinit
   236   00109E                     __pcinit:
   237                           	callstack 0
   238   00109E                     start_initialization:
   239                           	callstack 0
   240   00109E                     __initialization:
   241                           	callstack 0
   242                           
   243                           ; Clear objects allocated to BANK0 (16 bytes)
   244   00109E  EE00  F060         	lfsr	0,__pbssBANK0
   245   0010A2  0E10               	movlw	16
   246   0010A4                     clear_0:
   247   0010A4  6AEE               	clrf	postinc0,c
   248   0010A6  06E8               	decf	wreg,f,c
   249   0010A8  E1FD               	bnz	clear_0
   250                           
   251                           ; Clear objects allocated to COMRAM (41 bytes)
   252   0010AA  EE00  F001         	lfsr	0,__pbssCOMRAM
   253   0010AE  0E29               	movlw	41
   254   0010B0                     clear_1:
   255   0010B0  6AEE               	clrf	postinc0,c
   256   0010B2  06E8               	decf	wreg,f,c
   257   0010B4  E1FD               	bnz	clear_1
   258                           
   259                           ;
   260                           ; Setup IVTBASE
   261                           ;
   262   0010B6  0E08               	movlw	(ivt0x8_base shr 0)& (0+255)
   263   0010B8  6ED5               	movwf	213,c
   264   0010BA  0E00               	movlw	(ivt0x8_base shr (0+8))& (0+255)
   265   0010BC  6ED6               	movwf	214,c
   266   0010BE  0E00               	movlw	(ivt0x8_base shr (0+16))& (0+255)
   267   0010C0  6ED7               	movwf	215,c
   268   0010C2                     end_of_initialization:
   269                           	callstack 0
   270   0010C2                     __end_of__initialization:
   271                           	callstack 0
   272   0010C2  0E00               	movlw	low (__Lmediumconst shr (0+16))
   273   0010C4  6EF8               	movwf	tblptru,c
   274   0010C6  0100               	movlb	0
   275   0010C8  EF23  F004         	goto	_main	;jump to C main() function
   276                           
   277                           	psect	bssCOMRAM
   278   000001                     __pbssCOMRAM:
   279                           	callstack 0
   280   000001                     _pwm_setting:
   281                           	callstack 0
   282   000001                     	ds	32
   283   000021                     _old_clocks_counter:
   284                           	callstack 0
   285   000021                     	ds	2
   286   000023                     _clocks_counter:
   287                           	callstack 0
   288   000023                     	ds	2
   289   000025                     _lampstatus:
   290                           	callstack 0
   291   000025                     	ds	2
   292   000027                     _lampdata:
   293                           	callstack 0
   294   000027                     	ds	2
   295   000029                     my_pwm_isr@pwm_cnt:
   296                           	callstack 0
   297   000029                     	ds	1
   298                           
   299                           	psect	bssBANK0
   300   000060                     __pbssBANK0:
   301                           	callstack 0
   302   000060                     _pwm_phase:
   303                           	callstack 0
   304   000060                     	ds	16
   305                           
   306                           	psect	cstackCOMRAM
   307   00002A                     __pcstackCOMRAM:
   308                           	callstack 0
   309   00002A                     ??_INTERRUPT_InterruptManagerHigh:
   310   00002A                     
   311                           ; 1 bytes @ 0x0
   312   00002A                     	ds	2
   313   00002C                     ??_my_fading_isr:
   314   00002C                     ??_my_pwm_isr:
   315                           
   316                           ; 1 bytes @ 0x2
   317   00002C                     	ds	2
   318   00002E                     my_pwm_isr@tmp1:
   319                           	callstack 0
   320                           
   321                           ; 1 bytes @ 0x4
   322   00002E                     	ds	1
   323   00002F                     my_fading_isr@io:
   324                           	callstack 0
   325   00002F                     my_pwm_isr@tmp2:
   326                           	callstack 0
   327                           
   328                           ; 1 bytes @ 0x5
   329   00002F                     	ds	1
   330   000030                     ??_INTERRUPT_InterruptManagerLow:
   331                           
   332                           ; 1 bytes @ 0x6
   333   000030                     	ds	7
   334   000037                     TMR4_Period8BitSet@periodVal:
   335                           	callstack 0
   336   000037                     TMR0_SetInterruptHandler@InterruptHandler:
   337                           	callstack 0
   338   000037                     INT1_SetInterruptHandler@InterruptHandler:
   339                           	callstack 0
   340   000037                     TMR2_SetInterruptHandler@InterruptHandler:
   341                           	callstack 0
   342   000037                     TMR4_SetInterruptHandler@InterruptHandler:
   343                           	callstack 0
   344   000037                     my_delay@val:
   345                           	callstack 0
   346                           
   347                           ; 2 bytes @ 0xD
   348   000037                     	ds	2
   349   000039                     ??_my_delay:
   350                           
   351                           ; 1 bytes @ 0xF
   352   000039                     	ds	2
   353   00003B                     my_delay@i:
   354                           	callstack 0
   355                           
   356                           ; 2 bytes @ 0x11
   357   00003B                     	ds	2
   358   00003D                     blinkFw@version:
   359                           	callstack 0
   360                           
   361                           ; 1 bytes @ 0x13
   362   00003D                     	ds	1
   363   00003E                     ??_blinkFw:
   364                           
   365                           ; 1 bytes @ 0x14
   366   00003E                     	ds	1
   367   00003F                     blinkFw@pause:
   368                           	callstack 0
   369                           
   370                           ; 1 bytes @ 0x15
   371   00003F                     	ds	1
   372   000040                     blinkFw@blink:
   373                           	callstack 0
   374                           
   375                           ; 1 bytes @ 0x16
   376   000040                     	ds	1
   377   000041                     blinkFw@nval:
   378                           	callstack 0
   379                           
   380                           ; 1 bytes @ 0x17
   381   000041                     	ds	1
   382   000042                     blinkFw@pos:
   383                           	callstack 0
   384                           
   385                           ; 1 bytes @ 0x18
   386   000042                     	ds	1
   387   000043                     ??_main:
   388                           
   389                           ; 1 bytes @ 0x19
   390   000043                     	ds	3
   391   000046                     main@fading_level:
   392                           	callstack 0
   393                           
   394                           ; 1 bytes @ 0x1C
   395   000046                     	ds	1
   396   000047                     main@mode:
   397                           	callstack 0
   398                           
   399                           ; 1 bytes @ 0x1D
   400   000047                     	ds	1
   401   000048                     main@i:
   402                           	callstack 0
   403                           
   404                           ; 1 bytes @ 0x1E
   405   000048                     	ds	1
   406                           
   407 ;;
   408 ;;Main: autosize = 0, tempsize = 3, incstack = 0, save=0
   409 ;;
   410 ;; *************** function _main *****************
   411 ;; Defined at:
   412 ;;		line 216 in file "main.c"
   413 ;; Parameters:    Size  Location     Type
   414 ;;		None
   415 ;; Auto vars:     Size  Location     Type
   416 ;;  i               1   30[COMRAM] unsigned char 
   417 ;;  mode            1   29[COMRAM] unsigned char 
   418 ;;  fading_level    1   28[COMRAM] unsigned char 
   419 ;; Return value:  Size  Location     Type
   420 ;;                  1    wreg      void 
   421 ;; Registers used:
   422 ;;		wreg, fsr2l, fsr2h, status,2, status,0, tblptrl, tblptrh, tblptru, prodl, prodh, cstack
   423 ;; Tracked objects:
   424 ;;		On entry : 0/0
   425 ;;		On exit  : 0/0
   426 ;;		Unchanged: 0/0
   427 ;; Data sizes:     COMRAM   BANK0   BANK1   BANK2   BANK3   BANK4   BANK5   BANK6   BANK7
   428 ;;      Params:         0       0       0       0       0       0       0       0       0
   429 ;;      Locals:         3       0       0       0       0       0       0       0       0
   430 ;;      Temps:          3       0       0       0       0       0       0       0       0
   431 ;;      Totals:         6       0       0       0       0       0       0       0       0
   432 ;;Total ram usage:        6 bytes
   433 ;; Hardware stack levels required when called: 10
   434 ;; This function calls:
   435 ;;		_INT1_SetInterruptHandler
   436 ;;		_SYSTEM_Initialize
   437 ;;		_TMR0_SetInterruptHandler
   438 ;;		_TMR0_StartTimer
   439 ;;		_TMR0_StopTimer
   440 ;;		_TMR2_SetInterruptHandler
   441 ;;		_TMR4_Period8BitSet
   442 ;;		_TMR4_SetInterruptHandler
   443 ;;		_blinkFw
   444 ;;		_my_delay
   445 ;; This function is called by:
   446 ;;		Startup code after reset
   447 ;; This function uses a non-reentrant model
   448 ;;
   449                           
   450                           	psect	text0
   451   000846                     __ptext0:
   452                           	callstack 0
   453   000846                     _main:
   454                           	callstack 21
   455   000846                     
   456                           ;main.c: 219:     SYSTEM_Initialize();
   457   000846  ECE1  F008         	call	_SYSTEM_Initialize	;wreg free
   458   00084A                     
   459                           ;main.c: 222:     (INTCON0bits.GIEH = 1);
   460   00084A  8ED2               	bsf	210,7,c	;volatile
   461   00084C                     
   462                           ;main.c: 225:     (INTCON0bits.GIEL = 1);
   463   00084C  8CD2               	bsf	210,6,c	;volatile
   464                           
   465                           ;main.c: 228:     INT1_SetInterruptHandler(my_Int1_Isr);
   466   00084E  0E52               	movlw	low _my_Int1_Isr
   467   000850  6E37               	movwf	INT1_SetInterruptHandler@InterruptHandler^0,c
   468   000852  0E11               	movlw	high _my_Int1_Isr
   469   000854  6E38               	movwf	(INT1_SetInterruptHandler@InterruptHandler+1)^0,c
   470   000856  EC25  F009         	call	_INT1_SetInterruptHandler	;wreg free
   471                           
   472                           ;main.c: 229:     TMR0_SetInterruptHandler(my_antiflicker_isr);
   473   00085A  0E8C               	movlw	low _my_antiflicker_isr
   474   00085C  6E37               	movwf	TMR0_SetInterruptHandler@InterruptHandler^0,c
   475   00085E  0E0F               	movlw	high _my_antiflicker_isr
   476   000860  6E38               	movwf	(TMR0_SetInterruptHandler@InterruptHandler+1)^0,c
   477   000862  EC20  F009         	call	_TMR0_SetInterruptHandler	;wreg free
   478                           
   479                           ;main.c: 230:     TMR2_SetInterruptHandler(my_pwm_isr);
   480   000866  0E70               	movlw	low _my_pwm_isr
   481   000868  6E37               	movwf	TMR2_SetInterruptHandler@InterruptHandler^0,c
   482   00086A  0E0A               	movlw	high _my_pwm_isr
   483   00086C  6E38               	movwf	(TMR2_SetInterruptHandler@InterruptHandler+1)^0,c
   484   00086E  EC1B  F009         	call	_TMR2_SetInterruptHandler	;wreg free
   485                           
   486                           ;main.c: 231:     TMR4_SetInterruptHandler(my_fading_isr);
   487   000872  0E82               	movlw	low _my_fading_isr
   488   000874  6E37               	movwf	TMR4_SetInterruptHandler@InterruptHandler^0,c
   489   000876  0E0C               	movlw	high _my_fading_isr
   490   000878  6E38               	movwf	(TMR4_SetInterruptHandler@InterruptHandler+1)^0,c
   491   00087A  EC16  F009         	call	_TMR4_SetInterruptHandler	;wreg free
   492   00087E                     
   493                           ;main.c: 234: uint8_t i,fading_level;;main.c: 235: uint8_t mode = 0;
   494   00087E  0E00               	movlw	0
   495   000880  6E47               	movwf	main@mode^0,c
   496   000882                     
   497                           ;main.c: 238: for( i=0; i<=15; i++) pwm_setting[i] =0;
   498   000882  0E00               	movlw	0
   499   000884  6E48               	movwf	main@i^0,c
   500   000886                     l1847:
   501   000886  5048               	movf	main@i^0,w,c
   502   000888  0D02               	mullw	2
   503   00088A  50F3               	movf	243,w,c
   504   00088C  0F01               	addlw	low _pwm_setting
   505   00088E  6ED9               	movwf	fsr2l,c
   506   000890  6ADA               	clrf	fsr2h,c
   507   000892  6ADE               	clrf	postinc2,c
   508   000894  6ADD               	clrf	postdec2,c
   509   000896  2A48               	incf	main@i^0,f,c
   510   000898  0E0F               	movlw	15
   511   00089A  6448               	cpfsgt	main@i^0,c
   512   00089C  EF52  F004         	goto	u741
   513   0008A0  EF54  F004         	goto	u740
   514   0008A4                     u741:
   515   0008A4  EF43  F004         	goto	l1847
   516   0008A8                     u740:
   517   0008A8                     
   518                           ;main.c: 239: lampdata = lampstatus = 0;
   519   0008A8  0E00               	movlw	0
   520   0008AA  6E26               	movwf	(_lampstatus+1)^0,c	;volatile
   521   0008AC  0E00               	movlw	0
   522   0008AE  6E25               	movwf	_lampstatus^0,c	;volatile
   523   0008B0  C025  F027         	movff	_lampstatus,_lampdata	;volatile
   524   0008B4  C026  F028         	movff	_lampstatus+1,_lampdata+1	;volatile
   525                           
   526                           ;main.c: 240: clocks_counter = old_clocks_counter = 0;
   527   0008B8  0E00               	movlw	0
   528   0008BA  6E22               	movwf	(_old_clocks_counter+1)^0,c	;volatile
   529   0008BC  0E00               	movlw	0
   530   0008BE  6E21               	movwf	_old_clocks_counter^0,c	;volatile
   531   0008C0  C021  F023         	movff	_old_clocks_counter,_clocks_counter	;volatile
   532   0008C4  C022  F024         	movff	_old_clocks_counter+1,_clocks_counter+1	;volatile
   533                           
   534                           ;main.c: 243: for( i=0; i<5; i++) {
   535   0008C8  0E00               	movlw	0
   536   0008CA  6E48               	movwf	main@i^0,c
   537   0008CC                     l527:
   538   0008CC  86BB               	bsf	187,3,c	;volatile
   539   0008CE  84BB               	bsf	187,2,c	;volatile
   540   0008D0                     
   541                           ;main.c: 245:     my_delay(1);
   542   0008D0  0E00               	movlw	0
   543   0008D2  6E38               	movwf	(my_delay@val+1)^0,c
   544   0008D4  0E01               	movlw	1
   545   0008D6  6E37               	movwf	my_delay@val^0,c
   546   0008D8  ECA2  F007         	call	_my_delay	;wreg free
   547   0008DC  96BB               	bcf	187,3,c	;volatile
   548   0008DE  94BB               	bcf	187,2,c	;volatile
   549   0008E0                     
   550                           ;main.c: 247:     my_delay(1);
   551   0008E0  0E00               	movlw	0
   552   0008E2  6E38               	movwf	(my_delay@val+1)^0,c
   553   0008E4  0E01               	movlw	1
   554   0008E6  6E37               	movwf	my_delay@val^0,c
   555   0008E8  ECA2  F007         	call	_my_delay	;wreg free
   556   0008EC                     
   557                           ;main.c: 248: }
   558   0008EC  2A48               	incf	main@i^0,f,c
   559   0008EE  0E04               	movlw	4
   560   0008F0  6448               	cpfsgt	main@i^0,c
   561   0008F2  EF7D  F004         	goto	u751
   562   0008F6  EF7F  F004         	goto	u750
   563   0008FA                     u751:
   564   0008FA  EF66  F004         	goto	l527
   565   0008FE                     u750:
   566   0008FE                     
   567                           ;main.c: 251: blinkFw("103");
   568   0008FE  0E41               	movlw	low STR_1
   569   000900  6E3D               	movwf	blinkFw@version^0,c
   570   000902  EC0E  F007         	call	_blinkFw	;wreg free
   571   000906  86BB               	bsf	187,3,c	;volatile
   572   000908                     
   573                           ;main.c: 257: (INTCON0bits.GIE = 1);
   574   000908  8ED2               	bsf	210,7,c	;volatile
   575   00090A                     l1875:
   576                           
   577                           ;main.c: 262:      fading_level = PORTBbits.RB5 + PORTBbits.RB4 + PORTBbits.RB4;
   578   00090A  B8CB               	btfsc	203,4,c	;volatile
   579   00090C  EF8A  F004         	goto	u761
   580   000910  EF8E  F004         	goto	u760
   581   000914                     u761:
   582   000914  6A43               	clrf	??_main^0,c
   583   000916  2A43               	incf	??_main^0,f,c
   584   000918  EF8F  F004         	goto	u768
   585   00091C                     u760:
   586   00091C  6A43               	clrf	??_main^0,c
   587   00091E                     u768:
   588   00091E  B8CB               	btfsc	203,4,c	;volatile
   589   000920  EF94  F004         	goto	u771
   590   000924  EF98  F004         	goto	u770
   591   000928                     u771:
   592   000928  6A44               	clrf	(??_main+1)^0,c
   593   00092A  2A44               	incf	(??_main+1)^0,f,c
   594   00092C  EF99  F004         	goto	u778
   595   000930                     u770:
   596   000930  6A44               	clrf	(??_main+1)^0,c
   597   000932                     u778:
   598   000932  BACB               	btfsc	203,5,c	;volatile
   599   000934  EF9E  F004         	goto	u781
   600   000938  EFA1  F004         	goto	u780
   601   00093C                     u781:
   602   00093C  0E01               	movlw	1
   603   00093E  EFA2  F004         	goto	u786
   604   000942                     u780:
   605   000942  0E00               	movlw	0
   606   000944                     u786:
   607   000944  2444               	addwf	(??_main+1)^0,w,c
   608   000946  2443               	addwf	??_main^0,w,c
   609   000948  6E46               	movwf	main@fading_level^0,c
   610                           
   611                           ;main.c: 263:      switch(fading_level) {
   612   00094A  EFBB  F004         	goto	l1887
   613   00094E                     l1877:
   614   00094E  0E3C               	movlw	60
   615   000950  EC11  F009         	call	_TMR4_Period8BitSet
   616                           
   617                           ;main.c: 265:                  break;
   618   000954  EFCE  F004         	goto	l540
   619   000958                     l1879:
   620   000958  0E50               	movlw	80
   621   00095A  EC11  F009         	call	_TMR4_Period8BitSet
   622                           
   623                           ;main.c: 267:                  break;
   624   00095E  EFCE  F004         	goto	l540
   625   000962                     l1881:
   626   000962  0E28               	movlw	40
   627   000964  EC11  F009         	call	_TMR4_Period8BitSet
   628                           
   629                           ;main.c: 269:                  break;
   630   000968  EFCE  F004         	goto	l540
   631   00096C                     l1883:
   632   00096C  0E03               	movlw	3
   633   00096E  EC11  F009         	call	_TMR4_Period8BitSet
   634                           
   635                           ;main.c: 271:                  break;
   636   000972  EFCE  F004         	goto	l540
   637   000976                     l1887:
   638   000976  5046               	movf	main@fading_level^0,w,c
   639                           
   640                           ; Switch size 1, requested type "simple"
   641                           ; Number of cases is 4, Range of values is 0 to 3
   642                           ; switch strategies available:
   643                           ; Name         Instructions Cycles
   644                           ; simple_byte           13     7 (average)
   645                           ;	Chosen strategy is simple_byte
   646   000978  0A00               	xorlw	0	; case 0
   647   00097A  B4D8               	btfsc	status,2,c
   648   00097C  EFB6  F004         	goto	l1883
   649   000980  0A01               	xorlw	1	; case 1
   650   000982  B4D8               	btfsc	status,2,c
   651   000984  EFB1  F004         	goto	l1881
   652   000988  0A03               	xorlw	3	; case 2
   653   00098A  B4D8               	btfsc	status,2,c
   654   00098C  EFAC  F004         	goto	l1879
   655   000990  0A01               	xorlw	1	; case 3
   656   000992  B4D8               	btfsc	status,2,c
   657   000994  EFA7  F004         	goto	l1877
   658   000998  EFCE  F004         	goto	l540
   659   00099C                     l540:
   660                           
   661                           ;main.c: 274:      if ( PORTBbits.RB7 == 0) { mode = 1; }
   662   00099C  BECB               	btfsc	203,7,c	;volatile
   663   00099E  EFD3  F004         	goto	u791
   664   0009A2  EFD5  F004         	goto	u790
   665   0009A6                     u791:
   666   0009A6  EFD7  F004         	goto	l544
   667   0009AA                     u790:
   668   0009AA  0E01               	movlw	1
   669   0009AC  6E47               	movwf	main@mode^0,c
   670   0009AE                     l544:
   671                           
   672                           ;main.c: 276:      if ( mode == 0 ) {
   673   0009AE  5047               	movf	main@mode^0,w,c
   674   0009B0  A4D8               	btfss	status,2,c
   675   0009B2  EFDD  F004         	goto	u801
   676   0009B6  EFDF  F004         	goto	u800
   677   0009BA                     u801:
   678   0009BA  EFE1  F004         	goto	l545
   679   0009BE                     u800:
   680   0009BE  EF85  F004         	goto	l1875
   681   0009C2                     l545:
   682                           
   683                           ;main.c: 281:          (PIE5bits.INT1IE = 0);
   684   0009C2  0139               	movlb	57	; () banked
   685   0009C4  9195               	bcf	149,0,b	;volatile
   686   0009C6                     
   687                           ; BSR set to: 57
   688                           ;main.c: 282:          TMR0_StopTimer();
   689   0009C6  EC2F  F009         	call	_TMR0_StopTimer	;wreg free
   690   0009CA                     
   691                           ;main.c: 284:          lampstatus = 0;
   692   0009CA  0E00               	movlw	0
   693   0009CC  6E26               	movwf	(_lampstatus+1)^0,c	;volatile
   694   0009CE  0E00               	movlw	0
   695   0009D0  6E25               	movwf	_lampstatus^0,c	;volatile
   696   0009D2                     
   697                           ;main.c: 285:          for ( i=0; i<=15; i++) {
   698   0009D2  0E00               	movlw	0
   699   0009D4  6E48               	movwf	main@i^0,c
   700   0009D6                     l1903:
   701                           
   702                           ;main.c: 286:              lampstatus |= (1u << i);
   703   0009D6  C048  F043         	movff	main@i,??_main
   704   0009DA  0E01               	movlw	1
   705   0009DC  6E44               	movwf	(??_main+1)^0,c
   706   0009DE  0E00               	movlw	0
   707   0009E0  6E45               	movwf	(??_main+2)^0,c
   708   0009E2  2A43               	incf	??_main^0,f,c
   709   0009E4  EFF7  F004         	goto	u814
   710   0009E8                     u815:
   711   0009E8  90D8               	bcf	status,0,c
   712   0009EA  3644               	rlcf	(??_main+1)^0,f,c
   713   0009EC  3645               	rlcf	(??_main+2)^0,f,c
   714   0009EE                     u814:
   715   0009EE  2E43               	decfsz	??_main^0,f,c
   716   0009F0  EFF4  F004         	goto	u815
   717   0009F4  5044               	movf	(??_main+1)^0,w,c
   718   0009F6  1225               	iorwf	_lampstatus^0,f,c	;volatile
   719   0009F8  5045               	movf	(??_main+2)^0,w,c
   720   0009FA  1226               	iorwf	(_lampstatus+1)^0,f,c	;volatile
   721   0009FC                     
   722                           ;main.c: 287:              my_delay(2);
   723   0009FC  0E00               	movlw	0
   724   0009FE  6E38               	movwf	(my_delay@val+1)^0,c
   725   000A00  0E02               	movlw	2
   726   000A02  6E37               	movwf	my_delay@val^0,c
   727   000A04  ECA2  F007         	call	_my_delay	;wreg free
   728   000A08                     
   729                           ;main.c: 289:              if ( PORTBbits.RB6 == 0) {
   730   000A08  BCCB               	btfsc	203,6,c	;volatile
   731   000A0A  EF09  F005         	goto	u821
   732   000A0E  EF0B  F005         	goto	u820
   733   000A12                     u821:
   734   000A12  EF0F  F005         	goto	l1911
   735   000A16                     u820:
   736   000A16                     
   737                           ;main.c: 290:                  mode = 0;
   738   000A16  0E00               	movlw	0
   739   000A18  6E47               	movwf	main@mode^0,c
   740                           
   741                           ;main.c: 291:                  break;
   742   000A1A  EF27  F005         	goto	l1919
   743   000A1E                     l1911:
   744                           
   745                           ;main.c: 293:              lampstatus = 0;
   746   000A1E  0E00               	movlw	0
   747   000A20  6E26               	movwf	(_lampstatus+1)^0,c	;volatile
   748   000A22  0E00               	movlw	0
   749   000A24  6E25               	movwf	_lampstatus^0,c	;volatile
   750   000A26                     
   751                           ;main.c: 294:              if ( PORTBbits.RB2 == 0) do { LATBbits.LATB2 = 1; } while(0);
      +                           else do { LATBbits.LATB2 = 0; } while(0);
   752   000A26  B4CB               	btfsc	203,2,c	;volatile
   753   000A28  EF18  F005         	goto	u831
   754   000A2C  EF1A  F005         	goto	u830
   755   000A30                     u831:
   756   000A30  EF1D  F005         	goto	l554
   757   000A34                     u830:
   758   000A34  84BB               	bsf	187,2,c	;volatile
   759   000A36  EF1E  F005         	goto	l1915
   760   000A3A                     l554:
   761   000A3A  94BB               	bcf	187,2,c	;volatile
   762   000A3C                     l1915:
   763                           
   764                           ;main.c: 295:             }
   765   000A3C  2A48               	incf	main@i^0,f,c
   766   000A3E  0E0F               	movlw	15
   767   000A40  6448               	cpfsgt	main@i^0,c
   768   000A42  EF25  F005         	goto	u841
   769   000A46  EF27  F005         	goto	u840
   770   000A4A                     u841:
   771   000A4A  EFEB  F004         	goto	l1903
   772   000A4E                     u840:
   773   000A4E                     l1919:
   774                           
   775                           ;main.c: 296:          if ( mode == 0 ) {
   776   000A4E  5047               	movf	main@mode^0,w,c
   777   000A50  A4D8               	btfss	status,2,c
   778   000A52  EF2D  F005         	goto	u851
   779   000A56  EF2F  F005         	goto	u850
   780   000A5A                     u851:
   781   000A5A  EF85  F004         	goto	l1875
   782   000A5E                     u850:
   783   000A5E                     
   784                           ;main.c: 297:             (PIE5bits.INT1IE = 1);
   785   000A5E  0139               	movlb	57	; () banked
   786   000A60  8195               	bsf	149,0,b	;volatile
   787   000A62                     
   788                           ; BSR set to: 57
   789                           ;main.c: 298:             TMR0_StartTimer();
   790   000A62  EC31  F009         	call	_TMR0_StartTimer	;wreg free
   791   000A66  94BB               	bcf	187,2,c	;volatile
   792   000A68  EF85  F004         	goto	l1875
   793   000A6C  EF0E  F000         	goto	start
   794   000A70                     __end_of_main:
   795                           	callstack 0
   796                           
   797 ;; *************** function _blinkFw *****************
   798 ;; Defined at:
   799 ;;		line 186 in file "main.c"
   800 ;; Parameters:    Size  Location     Type
   801 ;;  version         1   19[COMRAM] PTR unsigned char 
   802 ;;		 -> STR_1(4), 
   803 ;; Auto vars:     Size  Location     Type
   804 ;;  pos             1   24[COMRAM] unsigned char 
   805 ;;  nval            1   23[COMRAM] unsigned char 
   806 ;;  blink           1   22[COMRAM] unsigned char 
   807 ;;  pause           1   21[COMRAM] unsigned char 
   808 ;; Return value:  Size  Location     Type
   809 ;;                  1    wreg      void 
   810 ;; Registers used:
   811 ;;		wreg, status,2, status,0, tblptrl, tblptrh, tblptru, cstack
   812 ;; Tracked objects:
   813 ;;		On entry : 0/0
   814 ;;		On exit  : 0/0
   815 ;;		Unchanged: 0/0
   816 ;; Data sizes:     COMRAM   BANK0   BANK1   BANK2   BANK3   BANK4   BANK5   BANK6   BANK7
   817 ;;      Params:         1       0       0       0       0       0       0       0       0
   818 ;;      Locals:         4       0       0       0       0       0       0       0       0
   819 ;;      Temps:          1       0       0       0       0       0       0       0       0
   820 ;;      Totals:         6       0       0       0       0       0       0       0       0
   821 ;;Total ram usage:        6 bytes
   822 ;; Hardware stack levels used: 1
   823 ;; Hardware stack levels required when called: 8
   824 ;; This function calls:
   825 ;;		_my_delay
   826 ;; This function is called by:
   827 ;;		_main
   828 ;; This function uses a non-reentrant model
   829 ;;
   830                           
   831                           	psect	text1
   832   000E1C                     __ptext1:
   833                           	callstack 0
   834   000E1C                     _blinkFw:
   835                           	callstack 22
   836   000E1C                     
   837                           ;main.c: 186: static void blinkFw(char* version);main.c: 187: {;main.c: 188: uint8_t pos
      +                          , nval, blink, pause;;main.c: 189: my_delay(7);
   838   000E1C  0E00               	movlw	0
   839   000E1E  6E38               	movwf	(my_delay@val+1)^0,c
   840   000E20  0E07               	movlw	7
   841   000E22  6E37               	movwf	my_delay@val^0,c
   842   000E24  ECA2  F007         	call	_my_delay	;wreg free
   843   000E28                     
   844                           ;main.c: 190: for (pos = 0; pos < 3; pos++) {
   845   000E28  0E00               	movlw	0
   846   000E2A  6E42               	movwf	blinkFw@pos^0,c
   847   000E2C                     l1791:
   848                           
   849                           ;main.c: 191: nval = version[pos] - '0';
   850   000E2C  503D               	movf	blinkFw@version^0,w,c
   851   000E2E  2442               	addwf	blinkFw@pos^0,w,c
   852   000E30  6E3E               	movwf	??_blinkFw^0,c
   853   000E32  0060  F0FB  FFF6   	movff	??_blinkFw,tblptrl
   854   000E38                     	if	1	;There is more than 1 active tblptr byte
   855   000E38  0E08               	movlw	high __smallconst
   856   000E3A  6EF7               	movwf	tblptrh,c
   857   000E3C                     	endif
   858   000E3C                     	if	0	;tblptru may be non-zero
   859   000E3C                     	endif
   860   000E3C                     	if	0	;tblptru may be non-zero
   861   000E3C                     	endif
   862   000E3C  0008               	tblrd		*
   863   000E3E  50F5               	movf	tablat,w,c
   864   000E40  0FD0               	addlw	208
   865   000E42  6E41               	movwf	blinkFw@nval^0,c
   866   000E44                     
   867                           ;main.c: 192: if (nval) {
   868   000E44  5041               	movf	blinkFw@nval^0,w,c
   869   000E46  B4D8               	btfsc	status,2,c
   870   000E48  EF28  F007         	goto	u651
   871   000E4C  EF2A  F007         	goto	u650
   872   000E50                     u651:
   873   000E50  EF50  F007         	goto	l514
   874   000E54                     u650:
   875   000E54                     
   876                           ;main.c: 193: for (blink = 0; blink < nval; blink++)
   877   000E54  0E00               	movlw	0
   878   000E56  6E40               	movwf	blinkFw@blink^0,c
   879   000E58  EF3D  F007         	goto	l1803
   880   000E5C                     l508:
   881   000E5C  86BB               	bsf	187,3,c	;volatile
   882   000E5E                     
   883                           ;main.c: 196: my_delay(1);
   884   000E5E  0E00               	movlw	0
   885   000E60  6E38               	movwf	(my_delay@val+1)^0,c
   886   000E62  0E01               	movlw	1
   887   000E64  6E37               	movwf	my_delay@val^0,c
   888   000E66  ECA2  F007         	call	_my_delay	;wreg free
   889   000E6A  96BB               	bcf	187,3,c	;volatile
   890   000E6C                     
   891                           ;main.c: 198: my_delay(1);
   892   000E6C  0E00               	movlw	0
   893   000E6E  6E38               	movwf	(my_delay@val+1)^0,c
   894   000E70  0E01               	movlw	1
   895   000E72  6E37               	movwf	my_delay@val^0,c
   896   000E74  ECA2  F007         	call	_my_delay	;wreg free
   897   000E78                     
   898                           ;main.c: 199: }
   899   000E78  2A40               	incf	blinkFw@blink^0,f,c
   900   000E7A                     l1803:
   901   000E7A  5041               	movf	blinkFw@nval^0,w,c
   902   000E7C  5C40               	subwf	blinkFw@blink^0,w,c
   903   000E7E  A0D8               	btfss	status,0,c
   904   000E80  EF44  F007         	goto	u661
   905   000E84  EF46  F007         	goto	u660
   906   000E88                     u661:
   907   000E88  EF2E  F007         	goto	l508
   908   000E8C                     u660:
   909   000E8C                     
   910                           ;main.c: 200: pause = 10 - nval;
   911   000E8C  5041               	movf	blinkFw@nval^0,w,c
   912   000E8E  080A               	sublw	10
   913   000E90  6E3F               	movwf	blinkFw@pause^0,c
   914   000E92                     
   915                           ;main.c: 201: my_delay(pause);
   916   000E92  C03F  F037         	movff	blinkFw@pause,my_delay@val
   917   000E96  6A38               	clrf	(my_delay@val+1)^0,c
   918   000E98  ECA2  F007         	call	_my_delay	;wreg free
   919                           
   920                           ;main.c: 202: }
   921   000E9C  EF5E  F007         	goto	l1813
   922   000EA0                     l514:
   923   000EA0  84BB               	bsf	187,2,c	;volatile
   924   000EA2                     
   925                           ;main.c: 205: my_delay(1);
   926   000EA2  0E00               	movlw	0
   927   000EA4  6E38               	movwf	(my_delay@val+1)^0,c
   928   000EA6  0E01               	movlw	1
   929   000EA8  6E37               	movwf	my_delay@val^0,c
   930   000EAA  ECA2  F007         	call	_my_delay	;wreg free
   931   000EAE  94BB               	bcf	187,2,c	;volatile
   932   000EB0                     
   933                           ;main.c: 207: my_delay(9);
   934   000EB0  0E00               	movlw	0
   935   000EB2  6E38               	movwf	(my_delay@val+1)^0,c
   936   000EB4  0E09               	movlw	9
   937   000EB6  6E37               	movwf	my_delay@val^0,c
   938   000EB8  ECA2  F007         	call	_my_delay	;wreg free
   939   000EBC                     l1813:
   940                           
   941                           ;main.c: 209: }
   942   000EBC  2A42               	incf	blinkFw@pos^0,f,c
   943   000EBE  0E02               	movlw	2
   944   000EC0  6442               	cpfsgt	blinkFw@pos^0,c
   945   000EC2  EF65  F007         	goto	u671
   946   000EC6  EF67  F007         	goto	u670
   947   000ECA                     u671:
   948   000ECA  EF16  F007         	goto	l1791
   949   000ECE                     u670:
   950   000ECE                     
   951                           ;main.c: 210: my_delay(9);
   952   000ECE  0E00               	movlw	0
   953   000ED0  6E38               	movwf	(my_delay@val+1)^0,c
   954   000ED2  0E09               	movlw	9
   955   000ED4  6E37               	movwf	my_delay@val^0,c
   956   000ED6  ECA2  F007         	call	_my_delay	;wreg free
   957   000EDA  0012               	return		;funcret
   958   000EDC                     __end_of_blinkFw:
   959                           	callstack 0
   960                           
   961 ;; *************** function _my_delay *****************
   962 ;; Defined at:
   963 ;;		line 175 in file "main.c"
   964 ;; Parameters:    Size  Location     Type
   965 ;;  val             2   13[COMRAM] int 
   966 ;; Auto vars:     Size  Location     Type
   967 ;;  i               2   17[COMRAM] int 
   968 ;; Return value:  Size  Location     Type
   969 ;;                  1    wreg      void 
   970 ;; Registers used:
   971 ;;		wreg, status,2, status,0
   972 ;; Tracked objects:
   973 ;;		On entry : 0/0
   974 ;;		On exit  : 0/0
   975 ;;		Unchanged: 0/0
   976 ;; Data sizes:     COMRAM   BANK0   BANK1   BANK2   BANK3   BANK4   BANK5   BANK6   BANK7
   977 ;;      Params:         2       0       0       0       0       0       0       0       0
   978 ;;      Locals:         2       0       0       0       0       0       0       0       0
   979 ;;      Temps:          2       0       0       0       0       0       0       0       0
   980 ;;      Totals:         6       0       0       0       0       0       0       0       0
   981 ;;Total ram usage:        6 bytes
   982 ;; Hardware stack levels used: 1
   983 ;; Hardware stack levels required when called: 7
   984 ;; This function calls:
   985 ;;		Nothing
   986 ;; This function is called by:
   987 ;;		_blinkFw
   988 ;;		_main
   989 ;; This function uses a non-reentrant model
   990 ;;
   991                           
   992                           	psect	text2
   993   000F44                     __ptext2:
   994                           	callstack 0
   995   000F44                     _my_delay:
   996                           	callstack 23
   997   000F44                     
   998                           ;main.c: 176:     int i;;main.c: 178:     for( i=0; i<=val; i++)
   999   000F44  0E00               	movlw	0
  1000   000F46  6E3C               	movwf	(my_delay@i+1)^0,c
  1001   000F48  0E00               	movlw	0
  1002   000F4A  6E3B               	movwf	my_delay@i^0,c
  1003   000F4C  EFB6  F007         	goto	l497
  1004   000F50                     l1757:
  1005                           
  1006                           ;main.c: 179:     {;main.c: 180:         _delay((unsigned long)((100)*(64000000/4000.0))
      +                          );
  1007   000F50  0E09               	movlw	9
  1008   000F52  6E3A               	movwf	(??_my_delay+1)^0,c
  1009   000F54  0E1E               	movlw	30
  1010   000F56  6E39               	movwf	??_my_delay^0,c
  1011   000F58  0EE4               	movlw	228
  1012   000F5A                     u867:
  1013   000F5A  2EE8               	decfsz	wreg,f,c
  1014   000F5C  D7FE               	bra	u867
  1015   000F5E  2E39               	decfsz	??_my_delay^0,f,c
  1016   000F60  D7FC               	bra	u867
  1017   000F62  2E3A               	decfsz	(??_my_delay+1)^0,f,c
  1018   000F64  D7FA               	bra	u867
  1019   000F66  D000               	nop2	
  1020   000F68                     
  1021                           ;main.c: 181:     }
  1022   000F68  4A3B               	infsnz	my_delay@i^0,f,c
  1023   000F6A  2A3C               	incf	(my_delay@i+1)^0,f,c
  1024   000F6C                     l497:
  1025   000F6C  503B               	movf	my_delay@i^0,w,c
  1026   000F6E  5C37               	subwf	my_delay@val^0,w,c
  1027   000F70  5038               	movf	(my_delay@val+1)^0,w,c
  1028   000F72  0A80               	xorlw	128
  1029   000F74  6E39               	movwf	??_my_delay^0,c
  1030   000F76  503C               	movf	(my_delay@i+1)^0,w,c
  1031   000F78  0A80               	xorlw	128
  1032   000F7A  5839               	subwfb	??_my_delay^0,w,c
  1033   000F7C  B0D8               	btfsc	status,0,c
  1034   000F7E  EFC3  F007         	goto	u621
  1035   000F82  EFC5  F007         	goto	u620
  1036   000F86                     u621:
  1037   000F86  EFA8  F007         	goto	l1757
  1038   000F8A                     u620:
  1039   000F8A  0012               	return		;funcret
  1040   000F8C                     __end_of_my_delay:
  1041                           	callstack 0
  1042                           
  1043 ;; *************** function _TMR4_Period8BitSet *****************
  1044 ;; Defined at:
  1045 ;;		line 155 in file "mcc_generated_files/tmr4.c"
  1046 ;; Parameters:    Size  Location     Type
  1047 ;;  periodVal       1    wreg     unsigned char 
  1048 ;; Auto vars:     Size  Location     Type
  1049 ;;  periodVal       1   13[COMRAM] unsigned char 
  1050 ;; Return value:  Size  Location     Type
  1051 ;;                  1    wreg      void 
  1052 ;; Registers used:
  1053 ;;		wreg
  1054 ;; Tracked objects:
  1055 ;;		On entry : 0/0
  1056 ;;		On exit  : 0/0
  1057 ;;		Unchanged: 0/0
  1058 ;; Data sizes:     COMRAM   BANK0   BANK1   BANK2   BANK3   BANK4   BANK5   BANK6   BANK7
  1059 ;;      Params:         0       0       0       0       0       0       0       0       0
  1060 ;;      Locals:         1       0       0       0       0       0       0       0       0
  1061 ;;      Temps:          0       0       0       0       0       0       0       0       0
  1062 ;;      Totals:         1       0       0       0       0       0       0       0       0
  1063 ;;Total ram usage:        1 bytes
  1064 ;; Hardware stack levels used: 1
  1065 ;; Hardware stack levels required when called: 7
  1066 ;; This function calls:
  1067 ;;		Nothing
  1068 ;; This function is called by:
  1069 ;;		_main
  1070 ;;		_TMR4_LoadPeriodRegister
  1071 ;; This function uses a non-reentrant model
  1072 ;;
  1073                           
  1074                           	psect	text3
  1075   001222                     __ptext3:
  1076                           	callstack 0
  1077   001222                     _TMR4_Period8BitSet:
  1078                           	callstack 23
  1079                           
  1080                           ;incstack = 0
  1081                           ;TMR4_Period8BitSet@periodVal stored from wreg
  1082   001222  6E37               	movwf	TMR4_Period8BitSet@periodVal^0,c
  1083   001224                     
  1084                           ;mcc_generated_files/tmr4.c: 155: void TMR4_Period8BitSet(uint8_t periodVal);mcc_generat
      +                          ed_files/tmr4.c: 156: {;mcc_generated_files/tmr4.c: 157:    PR4 = periodVal;
  1085   001224  0060  F0DF  FF9F   	movff	TMR4_Period8BitSet@periodVal,16287	;volatile
  1086   00122A  0012               	return		;funcret
  1087   00122C                     __end_of_TMR4_Period8BitSet:
  1088                           	callstack 0
  1089                           
  1090 ;; *************** function _TMR0_StopTimer *****************
  1091 ;; Defined at:
  1092 ;;		line 93 in file "mcc_generated_files/tmr0.c"
  1093 ;; Parameters:    Size  Location     Type
  1094 ;;		None
  1095 ;; Auto vars:     Size  Location     Type
  1096 ;;		None
  1097 ;; Return value:  Size  Location     Type
  1098 ;;                  1    wreg      void 
  1099 ;; Registers used:
  1100 ;;		None
  1101 ;; Tracked objects:
  1102 ;;		On entry : 0/0
  1103 ;;		On exit  : 0/0
  1104 ;;		Unchanged: 0/0
  1105 ;; Data sizes:     COMRAM   BANK0   BANK1   BANK2   BANK3   BANK4   BANK5   BANK6   BANK7
  1106 ;;      Params:         0       0       0       0       0       0       0       0       0
  1107 ;;      Locals:         0       0       0       0       0       0       0       0       0
  1108 ;;      Temps:          0       0       0       0       0       0       0       0       0
  1109 ;;      Totals:         0       0       0       0       0       0       0       0       0
  1110 ;;Total ram usage:        0 bytes
  1111 ;; Hardware stack levels used: 1
  1112 ;; Hardware stack levels required when called: 7
  1113 ;; This function calls:
  1114 ;;		Nothing
  1115 ;; This function is called by:
  1116 ;;		_main
  1117 ;; This function uses a non-reentrant model
  1118 ;;
  1119                           
  1120                           	psect	text4
  1121   00125E                     __ptext4:
  1122                           	callstack 0
  1123   00125E                     _TMR0_StopTimer:
  1124                           	callstack 23
  1125   00125E                     
  1126                           ;mcc_generated_files/tmr0.c: 96:     T0CON0bits.T0EN = 0;
  1127   00125E  9EB8               	bcf	184,7,c	;volatile
  1128   001260  0012               	return		;funcret
  1129   001262                     __end_of_TMR0_StopTimer:
  1130                           	callstack 0
  1131                           
  1132 ;; *************** function _TMR0_StartTimer *****************
  1133 ;; Defined at:
  1134 ;;		line 87 in file "mcc_generated_files/tmr0.c"
  1135 ;; Parameters:    Size  Location     Type
  1136 ;;		None
  1137 ;; Auto vars:     Size  Location     Type
  1138 ;;		None
  1139 ;; Return value:  Size  Location     Type
  1140 ;;                  1    wreg      void 
  1141 ;; Registers used:
  1142 ;;		None
  1143 ;; Tracked objects:
  1144 ;;		On entry : 0/0
  1145 ;;		On exit  : 0/0
  1146 ;;		Unchanged: 0/0
  1147 ;; Data sizes:     COMRAM   BANK0   BANK1   BANK2   BANK3   BANK4   BANK5   BANK6   BANK7
  1148 ;;      Params:         0       0       0       0       0       0       0       0       0
  1149 ;;      Locals:         0       0       0       0       0       0       0       0       0
  1150 ;;      Temps:          0       0       0       0       0       0       0       0       0
  1151 ;;      Totals:         0       0       0       0       0       0       0       0       0
  1152 ;;Total ram usage:        0 bytes
  1153 ;; Hardware stack levels used: 1
  1154 ;; Hardware stack levels required when called: 7
  1155 ;; This function calls:
  1156 ;;		Nothing
  1157 ;; This function is called by:
  1158 ;;		_main
  1159 ;; This function uses a non-reentrant model
  1160 ;;
  1161                           
  1162                           	psect	text5
  1163   001262                     __ptext5:
  1164                           	callstack 0
  1165   001262                     _TMR0_StartTimer:
  1166                           	callstack 23
  1167   001262                     
  1168                           ;mcc_generated_files/tmr0.c: 90:     T0CON0bits.T0EN = 1;
  1169   001262  8EB8               	bsf	184,7,c	;volatile
  1170   001264  0012               	return		;funcret
  1171   001266                     __end_of_TMR0_StartTimer:
  1172                           	callstack 0
  1173                           
  1174 ;; *************** function _SYSTEM_Initialize *****************
  1175 ;; Defined at:
  1176 ;;		line 50 in file "mcc_generated_files/mcc.c"
  1177 ;; Parameters:    Size  Location     Type
  1178 ;;		None
  1179 ;; Auto vars:     Size  Location     Type
  1180 ;;		None
  1181 ;; Return value:  Size  Location     Type
  1182 ;;                  1    wreg      void 
  1183 ;; Registers used:
  1184 ;;		wreg, status,2, status,0, cstack
  1185 ;; Tracked objects:
  1186 ;;		On entry : 0/0
  1187 ;;		On exit  : 0/0
  1188 ;;		Unchanged: 0/0
  1189 ;; Data sizes:     COMRAM   BANK0   BANK1   BANK2   BANK3   BANK4   BANK5   BANK6   BANK7
  1190 ;;      Params:         0       0       0       0       0       0       0       0       0
  1191 ;;      Locals:         0       0       0       0       0       0       0       0       0
  1192 ;;      Temps:          0       0       0       0       0       0       0       0       0
  1193 ;;      Totals:         0       0       0       0       0       0       0       0       0
  1194 ;;Total ram usage:        0 bytes
  1195 ;; Hardware stack levels used: 1
  1196 ;; Hardware stack levels required when called: 9
  1197 ;; This function calls:
  1198 ;;		_EXT_INT_Initialize
  1199 ;;		_INTERRUPT_Initialize
  1200 ;;		_OSCILLATOR_Initialize
  1201 ;;		_PIN_MANAGER_Initialize
  1202 ;;		_PMD_Initialize
  1203 ;;		_TMR0_Initialize
  1204 ;;		_TMR2_Initialize
  1205 ;;		_TMR4_Initialize
  1206 ;; This function is called by:
  1207 ;;		_main
  1208 ;; This function uses a non-reentrant model
  1209 ;;
  1210                           
  1211                           	psect	text6
  1212   0011C2                     __ptext6:
  1213                           	callstack 0
  1214   0011C2                     _SYSTEM_Initialize:
  1215                           	callstack 21
  1216   0011C2                     
  1217                           ;mcc_generated_files/mcc.c: 52:     INTERRUPT_Initialize();
  1218   0011C2  EC0A  F009         	call	_INTERRUPT_Initialize	;wreg free
  1219   0011C6                     
  1220                           ;mcc_generated_files/mcc.c: 53:     PMD_Initialize();
  1221   0011C6  ECCF  F008         	call	_PMD_Initialize	;wreg free
  1222   0011CA                     
  1223                           ;mcc_generated_files/mcc.c: 54:     PIN_MANAGER_Initialize();
  1224   0011CA  EC6E  F007         	call	_PIN_MANAGER_Initialize	;wreg free
  1225   0011CE                     
  1226                           ;mcc_generated_files/mcc.c: 55:     OSCILLATOR_Initialize();
  1227   0011CE  ECF2  F008         	call	_OSCILLATOR_Initialize	;wreg free
  1228   0011D2                     
  1229                           ;mcc_generated_files/mcc.c: 56:     TMR4_Initialize();
  1230   0011D2  EC7D  F008         	call	_TMR4_Initialize	;wreg free
  1231   0011D6                     
  1232                           ;mcc_generated_files/mcc.c: 57:     TMR2_Initialize();
  1233   0011D6  EC93  F008         	call	_TMR2_Initialize	;wreg free
  1234   0011DA                     
  1235                           ;mcc_generated_files/mcc.c: 58:     EXT_INT_Initialize();
  1236   0011DA  ECFE  F008         	call	_EXT_INT_Initialize	;wreg free
  1237   0011DE                     
  1238                           ;mcc_generated_files/mcc.c: 59:     TMR0_Initialize();
  1239   0011DE  ECBD  F008         	call	_TMR0_Initialize	;wreg free
  1240   0011E2  0012               	return		;funcret
  1241   0011E4                     __end_of_SYSTEM_Initialize:
  1242                           	callstack 0
  1243                           
  1244 ;; *************** function _TMR4_Initialize *****************
  1245 ;; Defined at:
  1246 ;;		line 64 in file "mcc_generated_files/tmr4.c"
  1247 ;; Parameters:    Size  Location     Type
  1248 ;;		None
  1249 ;; Auto vars:     Size  Location     Type
  1250 ;;		None
  1251 ;; Return value:  Size  Location     Type
  1252 ;;                  1    wreg      void 
  1253 ;; Registers used:
  1254 ;;		wreg, status,2, status,0, cstack
  1255 ;; Tracked objects:
  1256 ;;		On entry : 0/0
  1257 ;;		On exit  : 0/0
  1258 ;;		Unchanged: 0/0
  1259 ;; Data sizes:     COMRAM   BANK0   BANK1   BANK2   BANK3   BANK4   BANK5   BANK6   BANK7
  1260 ;;      Params:         0       0       0       0       0       0       0       0       0
  1261 ;;      Locals:         0       0       0       0       0       0       0       0       0
  1262 ;;      Temps:          0       0       0       0       0       0       0       0       0
  1263 ;;      Totals:         0       0       0       0       0       0       0       0       0
  1264 ;;Total ram usage:        0 bytes
  1265 ;; Hardware stack levels used: 1
  1266 ;; Hardware stack levels required when called: 8
  1267 ;; This function calls:
  1268 ;;		_TMR4_SetInterruptHandler
  1269 ;; This function is called by:
  1270 ;;		_SYSTEM_Initialize
  1271 ;; This function uses a non-reentrant model
  1272 ;;
  1273                           
  1274                           	psect	text7
  1275   0010FA                     __ptext7:
  1276                           	callstack 0
  1277   0010FA                     _TMR4_Initialize:
  1278                           	callstack 21
  1279   0010FA                     
  1280                           ;mcc_generated_files/tmr4.c: 69:     T4CLKCON = 0x06;
  1281   0010FA  0E06               	movlw	6
  1282   0010FC  6EA2               	movwf	162,c	;volatile
  1283                           
  1284                           ;mcc_generated_files/tmr4.c: 72:     T4HLT = 0x00;
  1285   0010FE  0E00               	movlw	0
  1286   001100  6EA1               	movwf	161,c	;volatile
  1287                           
  1288                           ;mcc_generated_files/tmr4.c: 75:     T4RST = 0x00;
  1289   001102  0E00               	movlw	0
  1290   001104  6EA3               	movwf	163,c	;volatile
  1291                           
  1292                           ;mcc_generated_files/tmr4.c: 78:     T4PR = 0x63;
  1293   001106  0E63               	movlw	99
  1294   001108  6E9F               	movwf	159,c	;volatile
  1295                           
  1296                           ;mcc_generated_files/tmr4.c: 81:     T4TMR = 0x00;
  1297   00110A  0E00               	movlw	0
  1298   00110C  6E9E               	movwf	158,c	;volatile
  1299   00110E                     
  1300                           ;mcc_generated_files/tmr4.c: 84:     PIR7bits.TMR4IF = 0;
  1301   00110E  0139               	movlb	57	; () banked
  1302   001110  91A7               	bcf	167,0,b	;volatile
  1303   001112                     
  1304                           ; BSR set to: 57
  1305                           ;mcc_generated_files/tmr4.c: 87:     PIE7bits.TMR4IE = 1;
  1306   001112  8197               	bsf	151,0,b	;volatile
  1307   001114                     
  1308                           ; BSR set to: 57
  1309                           ;mcc_generated_files/tmr4.c: 90:     TMR4_SetInterruptHandler(TMR4_DefaultInterruptHandl
      +                          er);
  1310   001114  0E66               	movlw	low _TMR4_DefaultInterruptHandler
  1311   001116  6E37               	movwf	TMR4_SetInterruptHandler@InterruptHandler^0,c
  1312   001118  0E12               	movlw	high _TMR4_DefaultInterruptHandler
  1313   00111A  6E38               	movwf	(TMR4_SetInterruptHandler@InterruptHandler+1)^0,c
  1314   00111C  EC16  F009         	call	_TMR4_SetInterruptHandler	;wreg free
  1315   001120                     
  1316                           ;mcc_generated_files/tmr4.c: 93:     T4CON = 0xA0;
  1317   001120  0EA0               	movlw	160
  1318   001122  6EA0               	movwf	160,c	;volatile
  1319   001124  0012               	return		;funcret
  1320   001126                     __end_of_TMR4_Initialize:
  1321                           	callstack 0
  1322                           
  1323 ;; *************** function _TMR4_SetInterruptHandler *****************
  1324 ;; Defined at:
  1325 ;;		line 178 in file "mcc_generated_files/tmr4.c"
  1326 ;; Parameters:    Size  Location     Type
  1327 ;;  InterruptHan    2   13[COMRAM] PTR FTN()void 
  1328 ;;		 -> my_fading_isr(1), TMR4_DefaultInterruptHandler(1), 
  1329 ;; Auto vars:     Size  Location     Type
  1330 ;;		None
  1331 ;; Return value:  Size  Location     Type
  1332 ;;                  1    wreg      void 
  1333 ;; Registers used:
  1334 ;;		wreg, status,2, status,0
  1335 ;; Tracked objects:
  1336 ;;		On entry : 0/0
  1337 ;;		On exit  : 0/0
  1338 ;;		Unchanged: 0/0
  1339 ;; Data sizes:     COMRAM   BANK0   BANK1   BANK2   BANK3   BANK4   BANK5   BANK6   BANK7
  1340 ;;      Params:         2       0       0       0       0       0       0       0       0
  1341 ;;      Locals:         0       0       0       0       0       0       0       0       0
  1342 ;;      Temps:          0       0       0       0       0       0       0       0       0
  1343 ;;      Totals:         2       0       0       0       0       0       0       0       0
  1344 ;;Total ram usage:        2 bytes
  1345 ;; Hardware stack levels used: 1
  1346 ;; Hardware stack levels required when called: 7
  1347 ;; This function calls:
  1348 ;;		Nothing
  1349 ;; This function is called by:
  1350 ;;		_TMR4_Initialize
  1351 ;;		_main
  1352 ;; This function uses a non-reentrant model
  1353 ;;
  1354                           
  1355                           	psect	text8
  1356   00122C                     __ptext8:
  1357                           	callstack 0
  1358   00122C                     _TMR4_SetInterruptHandler:
  1359                           	callstack 23
  1360   00122C                     
  1361                           ;mcc_generated_files/tmr4.c: 179:     TMR4_InterruptHandler = InterruptHandler;
  1362   00122C  C037  F049         	movff	TMR4_SetInterruptHandler@InterruptHandler,_TMR4_InterruptHandler
  1363   001230  C038  F04A         	movff	TMR4_SetInterruptHandler@InterruptHandler+1,_TMR4_InterruptHandler+1
  1364   001234  0012               	return		;funcret
  1365   001236                     __end_of_TMR4_SetInterruptHandler:
  1366                           	callstack 0
  1367                           
  1368 ;; *************** function _TMR2_Initialize *****************
  1369 ;; Defined at:
  1370 ;;		line 64 in file "mcc_generated_files/tmr2.c"
  1371 ;; Parameters:    Size  Location     Type
  1372 ;;		None
  1373 ;; Auto vars:     Size  Location     Type
  1374 ;;		None
  1375 ;; Return value:  Size  Location     Type
  1376 ;;                  1    wreg      void 
  1377 ;; Registers used:
  1378 ;;		wreg, status,2, status,0, cstack
  1379 ;; Tracked objects:
  1380 ;;		On entry : 0/0
  1381 ;;		On exit  : 0/0
  1382 ;;		Unchanged: 0/0
  1383 ;; Data sizes:     COMRAM   BANK0   BANK1   BANK2   BANK3   BANK4   BANK5   BANK6   BANK7
  1384 ;;      Params:         0       0       0       0       0       0       0       0       0
  1385 ;;      Locals:         0       0       0       0       0       0       0       0       0
  1386 ;;      Temps:          0       0       0       0       0       0       0       0       0
  1387 ;;      Totals:         0       0       0       0       0       0       0       0       0
  1388 ;;Total ram usage:        0 bytes
  1389 ;; Hardware stack levels used: 1
  1390 ;; Hardware stack levels required when called: 8
  1391 ;; This function calls:
  1392 ;;		_TMR2_SetInterruptHandler
  1393 ;; This function is called by:
  1394 ;;		_SYSTEM_Initialize
  1395 ;; This function uses a non-reentrant model
  1396 ;;
  1397                           
  1398                           	psect	text9
  1399   001126                     __ptext9:
  1400                           	callstack 0
  1401   001126                     _TMR2_Initialize:
  1402                           	callstack 21
  1403   001126                     
  1404                           ;mcc_generated_files/tmr2.c: 69:     T2CLKCON = 0x01;
  1405   001126  0E01               	movlw	1
  1406   001128  6EAE               	movwf	174,c	;volatile
  1407                           
  1408                           ;mcc_generated_files/tmr2.c: 72:     T2HLT = 0x00;
  1409   00112A  0E00               	movlw	0
  1410   00112C  6EAD               	movwf	173,c	;volatile
  1411                           
  1412                           ;mcc_generated_files/tmr2.c: 75:     T2RST = 0x00;
  1413   00112E  0E00               	movlw	0
  1414   001130  6EAF               	movwf	175,c	;volatile
  1415                           
  1416                           ;mcc_generated_files/tmr2.c: 78:     T2PR = 0x9F;
  1417   001132  0E9F               	movlw	159
  1418   001134  6EAB               	movwf	171,c	;volatile
  1419                           
  1420                           ;mcc_generated_files/tmr2.c: 81:     T2TMR = 0x00;
  1421   001136  0E00               	movlw	0
  1422   001138  6EAA               	movwf	170,c	;volatile
  1423   00113A                     
  1424                           ;mcc_generated_files/tmr2.c: 84:     PIR4bits.TMR2IF = 0;
  1425   00113A  0139               	movlb	57	; () banked
  1426   00113C  95A4               	bcf	164,2,b	;volatile
  1427   00113E                     
  1428                           ; BSR set to: 57
  1429                           ;mcc_generated_files/tmr2.c: 87:     PIE4bits.TMR2IE = 1;
  1430   00113E  8594               	bsf	148,2,b	;volatile
  1431   001140                     
  1432                           ; BSR set to: 57
  1433                           ;mcc_generated_files/tmr2.c: 90:     TMR2_SetInterruptHandler(TMR2_DefaultInterruptHandl
      +                          er);
  1434   001140  0E68               	movlw	low _TMR2_DefaultInterruptHandler
  1435   001142  6E37               	movwf	TMR2_SetInterruptHandler@InterruptHandler^0,c
  1436   001144  0E12               	movlw	high _TMR2_DefaultInterruptHandler
  1437   001146  6E38               	movwf	(TMR2_SetInterruptHandler@InterruptHandler+1)^0,c
  1438   001148  EC1B  F009         	call	_TMR2_SetInterruptHandler	;wreg free
  1439   00114C                     
  1440                           ;mcc_generated_files/tmr2.c: 93:     T2CON = 0xA0;
  1441   00114C  0EA0               	movlw	160
  1442   00114E  6EAC               	movwf	172,c	;volatile
  1443   001150  0012               	return		;funcret
  1444   001152                     __end_of_TMR2_Initialize:
  1445                           	callstack 0
  1446                           
  1447 ;; *************** function _TMR2_SetInterruptHandler *****************
  1448 ;; Defined at:
  1449 ;;		line 178 in file "mcc_generated_files/tmr2.c"
  1450 ;; Parameters:    Size  Location     Type
  1451 ;;  InterruptHan    2   13[COMRAM] PTR FTN()void 
  1452 ;;		 -> my_pwm_isr(1), TMR2_DefaultInterruptHandler(1), 
  1453 ;; Auto vars:     Size  Location     Type
  1454 ;;		None
  1455 ;; Return value:  Size  Location     Type
  1456 ;;                  1    wreg      void 
  1457 ;; Registers used:
  1458 ;;		wreg, status,2, status,0
  1459 ;; Tracked objects:
  1460 ;;		On entry : 0/0
  1461 ;;		On exit  : 0/0
  1462 ;;		Unchanged: 0/0
  1463 ;; Data sizes:     COMRAM   BANK0   BANK1   BANK2   BANK3   BANK4   BANK5   BANK6   BANK7
  1464 ;;      Params:         2       0       0       0       0       0       0       0       0
  1465 ;;      Locals:         0       0       0       0       0       0       0       0       0
  1466 ;;      Temps:          0       0       0       0       0       0       0       0       0
  1467 ;;      Totals:         2       0       0       0       0       0       0       0       0
  1468 ;;Total ram usage:        2 bytes
  1469 ;; Hardware stack levels used: 1
  1470 ;; Hardware stack levels required when called: 7
  1471 ;; This function calls:
  1472 ;;		Nothing
  1473 ;; This function is called by:
  1474 ;;		_TMR2_Initialize
  1475 ;;		_main
  1476 ;; This function uses a non-reentrant model
  1477 ;;
  1478                           
  1479                           	psect	text10
  1480   001236                     __ptext10:
  1481                           	callstack 0
  1482   001236                     _TMR2_SetInterruptHandler:
  1483                           	callstack 23
  1484   001236                     
  1485                           ;mcc_generated_files/tmr2.c: 179:     TMR2_InterruptHandler = InterruptHandler;
  1486   001236  C037  F04B         	movff	TMR2_SetInterruptHandler@InterruptHandler,_TMR2_InterruptHandler
  1487   00123A  C038  F04C         	movff	TMR2_SetInterruptHandler@InterruptHandler+1,_TMR2_InterruptHandler+1
  1488   00123E  0012               	return		;funcret
  1489   001240                     __end_of_TMR2_SetInterruptHandler:
  1490                           	callstack 0
  1491                           
  1492 ;; *************** function _TMR0_Initialize *****************
  1493 ;; Defined at:
  1494 ;;		line 61 in file "mcc_generated_files/tmr0.c"
  1495 ;; Parameters:    Size  Location     Type
  1496 ;;		None
  1497 ;; Auto vars:     Size  Location     Type
  1498 ;;		None
  1499 ;; Return value:  Size  Location     Type
  1500 ;;                  1    wreg      void 
  1501 ;; Registers used:
  1502 ;;		wreg, status,2, status,0, cstack
  1503 ;; Tracked objects:
  1504 ;;		On entry : 0/0
  1505 ;;		On exit  : 0/0
  1506 ;;		Unchanged: 0/0
  1507 ;; Data sizes:     COMRAM   BANK0   BANK1   BANK2   BANK3   BANK4   BANK5   BANK6   BANK7
  1508 ;;      Params:         0       0       0       0       0       0       0       0       0
  1509 ;;      Locals:         0       0       0       0       0       0       0       0       0
  1510 ;;      Temps:          0       0       0       0       0       0       0       0       0
  1511 ;;      Totals:         0       0       0       0       0       0       0       0       0
  1512 ;;Total ram usage:        0 bytes
  1513 ;; Hardware stack levels used: 1
  1514 ;; Hardware stack levels required when called: 8
  1515 ;; This function calls:
  1516 ;;		_TMR0_SetInterruptHandler
  1517 ;; This function is called by:
  1518 ;;		_SYSTEM_Initialize
  1519 ;; This function uses a non-reentrant model
  1520 ;;
  1521                           
  1522                           	psect	text11
  1523   00117A                     __ptext11:
  1524                           	callstack 0
  1525   00117A                     _TMR0_Initialize:
  1526                           	callstack 21
  1527   00117A                     
  1528                           ;mcc_generated_files/tmr0.c: 66:     T0CON1 = 0x4B;
  1529   00117A  0E4B               	movlw	75
  1530   00117C  6EB9               	movwf	185,c	;volatile
  1531                           
  1532                           ;mcc_generated_files/tmr0.c: 69:     TMR0H = 0x9B;
  1533   00117E  0E9B               	movlw	155
  1534   001180  6EB7               	movwf	183,c	;volatile
  1535                           
  1536                           ;mcc_generated_files/tmr0.c: 72:     TMR0L = 0x00;
  1537   001182  0E00               	movlw	0
  1538   001184  6EB6               	movwf	182,c	;volatile
  1539   001186                     
  1540                           ;mcc_generated_files/tmr0.c: 75:     PIR3bits.TMR0IF = 0;
  1541   001186  0139               	movlb	57	; () banked
  1542   001188  9FA3               	bcf	163,7,b	;volatile
  1543   00118A                     
  1544                           ; BSR set to: 57
  1545                           ;mcc_generated_files/tmr0.c: 78:     PIE3bits.TMR0IE = 1;
  1546   00118A  8F93               	bsf	147,7,b	;volatile
  1547   00118C                     
  1548                           ; BSR set to: 57
  1549                           ;mcc_generated_files/tmr0.c: 81:     TMR0_SetInterruptHandler(TMR0_DefaultInterruptHandl
      +                          er);
  1550   00118C  0E6A               	movlw	low _TMR0_DefaultInterruptHandler
  1551   00118E  6E37               	movwf	TMR0_SetInterruptHandler@InterruptHandler^0,c
  1552   001190  0E12               	movlw	high _TMR0_DefaultInterruptHandler
  1553   001192  6E38               	movwf	(TMR0_SetInterruptHandler@InterruptHandler+1)^0,c
  1554   001194  EC20  F009         	call	_TMR0_SetInterruptHandler	;wreg free
  1555   001198                     
  1556                           ;mcc_generated_files/tmr0.c: 84:     T0CON0 = 0x80;
  1557   001198  0E80               	movlw	128
  1558   00119A  6EB8               	movwf	184,c	;volatile
  1559   00119C  0012               	return		;funcret
  1560   00119E                     __end_of_TMR0_Initialize:
  1561                           	callstack 0
  1562                           
  1563 ;; *************** function _TMR0_SetInterruptHandler *****************
  1564 ;; Defined at:
  1565 ;;		line 134 in file "mcc_generated_files/tmr0.c"
  1566 ;; Parameters:    Size  Location     Type
  1567 ;;  InterruptHan    2   13[COMRAM] PTR FTN()void 
  1568 ;;		 -> my_antiflicker_isr(1), TMR0_DefaultInterruptHandler(1), 
  1569 ;; Auto vars:     Size  Location     Type
  1570 ;;		None
  1571 ;; Return value:  Size  Location     Type
  1572 ;;                  1    wreg      void 
  1573 ;; Registers used:
  1574 ;;		wreg, status,2, status,0
  1575 ;; Tracked objects:
  1576 ;;		On entry : 0/0
  1577 ;;		On exit  : 0/0
  1578 ;;		Unchanged: 0/0
  1579 ;; Data sizes:     COMRAM   BANK0   BANK1   BANK2   BANK3   BANK4   BANK5   BANK6   BANK7
  1580 ;;      Params:         2       0       0       0       0       0       0       0       0
  1581 ;;      Locals:         0       0       0       0       0       0       0       0       0
  1582 ;;      Temps:          0       0       0       0       0       0       0       0       0
  1583 ;;      Totals:         2       0       0       0       0       0       0       0       0
  1584 ;;Total ram usage:        2 bytes
  1585 ;; Hardware stack levels used: 1
  1586 ;; Hardware stack levels required when called: 7
  1587 ;; This function calls:
  1588 ;;		Nothing
  1589 ;; This function is called by:
  1590 ;;		_TMR0_Initialize
  1591 ;;		_main
  1592 ;; This function uses a non-reentrant model
  1593 ;;
  1594                           
  1595                           	psect	text12
  1596   001240                     __ptext12:
  1597                           	callstack 0
  1598   001240                     _TMR0_SetInterruptHandler:
  1599                           	callstack 23
  1600   001240                     
  1601                           ;mcc_generated_files/tmr0.c: 135:     TMR0_InterruptHandler = InterruptHandler;
  1602   001240  C037  F04F         	movff	TMR0_SetInterruptHandler@InterruptHandler,_TMR0_InterruptHandler
  1603   001244  C038  F050         	movff	TMR0_SetInterruptHandler@InterruptHandler+1,_TMR0_InterruptHandler+1
  1604   001248  0012               	return		;funcret
  1605   00124A                     __end_of_TMR0_SetInterruptHandler:
  1606                           	callstack 0
  1607                           
  1608 ;; *************** function _PMD_Initialize *****************
  1609 ;; Defined at:
  1610 ;;		line 76 in file "mcc_generated_files/mcc.c"
  1611 ;; Parameters:    Size  Location     Type
  1612 ;;		None
  1613 ;; Auto vars:     Size  Location     Type
  1614 ;;		None
  1615 ;; Return value:  Size  Location     Type
  1616 ;;                  1    wreg      void 
  1617 ;; Registers used:
  1618 ;;		wreg, status,2
  1619 ;; Tracked objects:
  1620 ;;		On entry : 0/0
  1621 ;;		On exit  : 0/0
  1622 ;;		Unchanged: 0/0
  1623 ;; Data sizes:     COMRAM   BANK0   BANK1   BANK2   BANK3   BANK4   BANK5   BANK6   BANK7
  1624 ;;      Params:         0       0       0       0       0       0       0       0       0
  1625 ;;      Locals:         0       0       0       0       0       0       0       0       0
  1626 ;;      Temps:          0       0       0       0       0       0       0       0       0
  1627 ;;      Totals:         0       0       0       0       0       0       0       0       0
  1628 ;;Total ram usage:        0 bytes
  1629 ;; Hardware stack levels used: 1
  1630 ;; Hardware stack levels required when called: 7
  1631 ;; This function calls:
  1632 ;;		Nothing
  1633 ;; This function is called by:
  1634 ;;		_SYSTEM_Initialize
  1635 ;; This function uses a non-reentrant model
  1636 ;;
  1637                           
  1638                           	psect	text13
  1639   00119E                     __ptext13:
  1640                           	callstack 0
  1641   00119E                     _PMD_Initialize:
  1642                           	callstack 22
  1643   00119E                     
  1644                           ;mcc_generated_files/mcc.c: 79:     PMD0 = 0x00;
  1645   00119E  0E00               	movlw	0
  1646   0011A0  0139               	movlb	57	; () banked
  1647   0011A2  6FC0               	movwf	192,b	;volatile
  1648                           
  1649                           ;mcc_generated_files/mcc.c: 81:     PMD1 = 0x00;
  1650   0011A4  0E00               	movlw	0
  1651   0011A6  6FC1               	movwf	193,b	;volatile
  1652                           
  1653                           ;mcc_generated_files/mcc.c: 83:     PMD2 = 0x00;
  1654   0011A8  0E00               	movlw	0
  1655   0011AA  6FC2               	movwf	194,b	;volatile
  1656                           
  1657                           ;mcc_generated_files/mcc.c: 85:     PMD3 = 0x00;
  1658   0011AC  0E00               	movlw	0
  1659   0011AE  6FC3               	movwf	195,b	;volatile
  1660                           
  1661                           ;mcc_generated_files/mcc.c: 87:     PMD4 = 0x00;
  1662   0011B0  0E00               	movlw	0
  1663   0011B2  6FC4               	movwf	196,b	;volatile
  1664                           
  1665                           ;mcc_generated_files/mcc.c: 89:     PMD5 = 0x00;
  1666   0011B4  0E00               	movlw	0
  1667   0011B6  6FC5               	movwf	197,b	;volatile
  1668                           
  1669                           ;mcc_generated_files/mcc.c: 91:     PMD6 = 0x00;
  1670   0011B8  0E00               	movlw	0
  1671   0011BA  6FC6               	movwf	198,b	;volatile
  1672                           
  1673                           ;mcc_generated_files/mcc.c: 93:     PMD7 = 0x00;
  1674   0011BC  0E00               	movlw	0
  1675   0011BE  6FC7               	movwf	199,b	;volatile
  1676   0011C0                     
  1677                           ; BSR set to: 57
  1678   0011C0  0012               	return		;funcret
  1679   0011C2                     __end_of_PMD_Initialize:
  1680                           	callstack 0
  1681                           
  1682 ;; *************** function _PIN_MANAGER_Initialize *****************
  1683 ;; Defined at:
  1684 ;;		line 55 in file "mcc_generated_files/pin_manager.c"
  1685 ;; Parameters:    Size  Location     Type
  1686 ;;		None
  1687 ;; Auto vars:     Size  Location     Type
  1688 ;;		None
  1689 ;; Return value:  Size  Location     Type
  1690 ;;                  1    wreg      void 
  1691 ;; Registers used:
  1692 ;;		wreg, status,2
  1693 ;; Tracked objects:
  1694 ;;		On entry : 0/0
  1695 ;;		On exit  : 0/0
  1696 ;;		Unchanged: 0/0
  1697 ;; Data sizes:     COMRAM   BANK0   BANK1   BANK2   BANK3   BANK4   BANK5   BANK6   BANK7
  1698 ;;      Params:         0       0       0       0       0       0       0       0       0
  1699 ;;      Locals:         0       0       0       0       0       0       0       0       0
  1700 ;;      Temps:          0       0       0       0       0       0       0       0       0
  1701 ;;      Totals:         0       0       0       0       0       0       0       0       0
  1702 ;;Total ram usage:        0 bytes
  1703 ;; Hardware stack levels used: 1
  1704 ;; Hardware stack levels required when called: 7
  1705 ;; This function calls:
  1706 ;;		Nothing
  1707 ;; This function is called by:
  1708 ;;		_SYSTEM_Initialize
  1709 ;; This function uses a non-reentrant model
  1710 ;;
  1711                           
  1712                           	psect	text14
  1713   000EDC                     __ptext14:
  1714                           	callstack 0
  1715   000EDC                     _PIN_MANAGER_Initialize:
  1716                           	callstack 22
  1717   000EDC                     
  1718                           ;mcc_generated_files/pin_manager.c: 60:     LATA = 0x00;
  1719   000EDC  0E00               	movlw	0
  1720   000EDE  6EBA               	movwf	186,c	;volatile
  1721                           
  1722                           ;mcc_generated_files/pin_manager.c: 61:     LATB = 0x00;
  1723   000EE0  0E00               	movlw	0
  1724   000EE2  6EBB               	movwf	187,c	;volatile
  1725                           
  1726                           ;mcc_generated_files/pin_manager.c: 62:     LATC = 0x00;
  1727   000EE4  0E00               	movlw	0
  1728   000EE6  6EBC               	movwf	188,c	;volatile
  1729                           
  1730                           ;mcc_generated_files/pin_manager.c: 67:     TRISA = 0x00;
  1731   000EE8  0E00               	movlw	0
  1732   000EEA  6EC2               	movwf	194,c	;volatile
  1733                           
  1734                           ;mcc_generated_files/pin_manager.c: 68:     TRISB = 0xF3;
  1735   000EEC  0EF3               	movlw	243
  1736   000EEE  6EC3               	movwf	195,c	;volatile
  1737                           
  1738                           ;mcc_generated_files/pin_manager.c: 69:     TRISC = 0x00;
  1739   000EF0  0E00               	movlw	0
  1740   000EF2  6EC4               	movwf	196,c	;volatile
  1741                           
  1742                           ;mcc_generated_files/pin_manager.c: 74:     ANSELC = 0x00;
  1743   000EF4  0E00               	movlw	0
  1744   000EF6  013A               	movlb	58	; () banked
  1745   000EF8  6F60               	movwf	96,b	;volatile
  1746                           
  1747                           ;mcc_generated_files/pin_manager.c: 75:     ANSELB = 0x00;
  1748   000EFA  0E00               	movlw	0
  1749   000EFC  6F50               	movwf	80,b	;volatile
  1750                           
  1751                           ;mcc_generated_files/pin_manager.c: 76:     ANSELA = 0x00;
  1752   000EFE  0E00               	movlw	0
  1753   000F00  6F40               	movwf	64,b	;volatile
  1754                           
  1755                           ;mcc_generated_files/pin_manager.c: 81:     WPUE = 0x00;
  1756   000F02  0E00               	movlw	0
  1757   000F04  6F81               	movwf	129,b	;volatile
  1758                           
  1759                           ;mcc_generated_files/pin_manager.c: 82:     WPUB = 0xF0;
  1760   000F06  0EF0               	movlw	240
  1761   000F08  6F51               	movwf	81,b	;volatile
  1762                           
  1763                           ;mcc_generated_files/pin_manager.c: 83:     WPUA = 0x00;
  1764   000F0A  0E00               	movlw	0
  1765   000F0C  6F41               	movwf	65,b	;volatile
  1766                           
  1767                           ;mcc_generated_files/pin_manager.c: 84:     WPUC = 0x00;
  1768   000F0E  0E00               	movlw	0
  1769   000F10  6F61               	movwf	97,b	;volatile
  1770                           
  1771                           ;mcc_generated_files/pin_manager.c: 89:     RB1I2C = 0x00;
  1772   000F12  0E00               	movlw	0
  1773   000F14  6F5A               	movwf	90,b	;volatile
  1774                           
  1775                           ;mcc_generated_files/pin_manager.c: 90:     RB2I2C = 0x00;
  1776   000F16  0E00               	movlw	0
  1777   000F18  6F5B               	movwf	91,b	;volatile
  1778                           
  1779                           ;mcc_generated_files/pin_manager.c: 91:     RC3I2C = 0x00;
  1780   000F1A  0E00               	movlw	0
  1781   000F1C  6F6A               	movwf	106,b	;volatile
  1782                           
  1783                           ;mcc_generated_files/pin_manager.c: 92:     RC4I2C = 0x00;
  1784   000F1E  0E00               	movlw	0
  1785   000F20  6F6B               	movwf	107,b	;volatile
  1786                           
  1787                           ;mcc_generated_files/pin_manager.c: 97:     ODCONA = 0x00;
  1788   000F22  0E00               	movlw	0
  1789   000F24  6F42               	movwf	66,b	;volatile
  1790                           
  1791                           ;mcc_generated_files/pin_manager.c: 98:     ODCONB = 0x00;
  1792   000F26  0E00               	movlw	0
  1793   000F28  6F52               	movwf	82,b	;volatile
  1794                           
  1795                           ;mcc_generated_files/pin_manager.c: 99:     ODCONC = 0x00;
  1796   000F2A  0E00               	movlw	0
  1797   000F2C  6F62               	movwf	98,b	;volatile
  1798   000F2E                     
  1799                           ; BSR set to: 58
  1800                           ;mcc_generated_files/pin_manager.c: 104:     SLRCONA = 0xFF;
  1801   000F2E  6943               	setf	67,b	;volatile
  1802   000F30                     
  1803                           ; BSR set to: 58
  1804                           ;mcc_generated_files/pin_manager.c: 105:     SLRCONB = 0xFF;
  1805   000F30  6953               	setf	83,b	;volatile
  1806   000F32                     
  1807                           ; BSR set to: 58
  1808                           ;mcc_generated_files/pin_manager.c: 106:     SLRCONC = 0xFF;
  1809   000F32  6963               	setf	99,b	;volatile
  1810   000F34                     
  1811                           ; BSR set to: 58
  1812                           ;mcc_generated_files/pin_manager.c: 111:     INLVLA = 0xFF;
  1813   000F34  6944               	setf	68,b	;volatile
  1814   000F36                     
  1815                           ; BSR set to: 58
  1816                           ;mcc_generated_files/pin_manager.c: 112:     INLVLB = 0xFF;
  1817   000F36  6954               	setf	84,b	;volatile
  1818   000F38                     
  1819                           ; BSR set to: 58
  1820                           ;mcc_generated_files/pin_manager.c: 113:     INLVLC = 0xFF;
  1821   000F38  6964               	setf	100,b	;volatile
  1822                           
  1823                           ;mcc_generated_files/pin_manager.c: 114:     INLVLE = 0x08;
  1824   000F3A  0E08               	movlw	8
  1825   000F3C  6F84               	movwf	132,b	;volatile
  1826                           
  1827                           ;mcc_generated_files/pin_manager.c: 123:     INT1PPS = 0x09;
  1828   000F3E  0E09               	movlw	9
  1829   000F40  6FC1               	movwf	193,b	;volatile
  1830   000F42                     
  1831                           ; BSR set to: 58
  1832   000F42  0012               	return		;funcret
  1833   000F44                     __end_of_PIN_MANAGER_Initialize:
  1834                           	callstack 0
  1835                           
  1836 ;; *************** function _OSCILLATOR_Initialize *****************
  1837 ;; Defined at:
  1838 ;;		line 62 in file "mcc_generated_files/mcc.c"
  1839 ;; Parameters:    Size  Location     Type
  1840 ;;		None
  1841 ;; Auto vars:     Size  Location     Type
  1842 ;;		None
  1843 ;; Return value:  Size  Location     Type
  1844 ;;                  1    wreg      void 
  1845 ;; Registers used:
  1846 ;;		wreg, status,2
  1847 ;; Tracked objects:
  1848 ;;		On entry : 0/0
  1849 ;;		On exit  : 0/0
  1850 ;;		Unchanged: 0/0
  1851 ;; Data sizes:     COMRAM   BANK0   BANK1   BANK2   BANK3   BANK4   BANK5   BANK6   BANK7
  1852 ;;      Params:         0       0       0       0       0       0       0       0       0
  1853 ;;      Locals:         0       0       0       0       0       0       0       0       0
  1854 ;;      Temps:          0       0       0       0       0       0       0       0       0
  1855 ;;      Totals:         0       0       0       0       0       0       0       0       0
  1856 ;;Total ram usage:        0 bytes
  1857 ;; Hardware stack levels used: 1
  1858 ;; Hardware stack levels required when called: 7
  1859 ;; This function calls:
  1860 ;;		Nothing
  1861 ;; This function is called by:
  1862 ;;		_SYSTEM_Initialize
  1863 ;; This function uses a non-reentrant model
  1864 ;;
  1865                           
  1866                           	psect	text15
  1867   0011E4                     __ptext15:
  1868                           	callstack 0
  1869   0011E4                     _OSCILLATOR_Initialize:
  1870                           	callstack 22
  1871   0011E4                     
  1872                           ;mcc_generated_files/mcc.c: 65:     OSCCON1 = 0x60;
  1873   0011E4  0E60               	movlw	96
  1874   0011E6  0139               	movlb	57	; () banked
  1875   0011E8  6FD9               	movwf	217,b	;volatile
  1876                           
  1877                           ;mcc_generated_files/mcc.c: 67:     OSCCON3 = 0x00;
  1878   0011EA  0E00               	movlw	0
  1879   0011EC  6FDB               	movwf	219,b	;volatile
  1880                           
  1881                           ;mcc_generated_files/mcc.c: 69:     OSCEN = 0x00;
  1882   0011EE  0E00               	movlw	0
  1883   0011F0  6FDD               	movwf	221,b	;volatile
  1884                           
  1885                           ;mcc_generated_files/mcc.c: 71:     OSCFRQ = 0x08;
  1886   0011F2  0E08               	movlw	8
  1887   0011F4  6FDF               	movwf	223,b	;volatile
  1888                           
  1889                           ;mcc_generated_files/mcc.c: 73:     OSCTUNE = 0x00;
  1890   0011F6  0E00               	movlw	0
  1891   0011F8  6FDE               	movwf	222,b	;volatile
  1892   0011FA                     
  1893                           ; BSR set to: 57
  1894   0011FA  0012               	return		;funcret
  1895   0011FC                     __end_of_OSCILLATOR_Initialize:
  1896                           	callstack 0
  1897                           
  1898 ;; *************** function _INTERRUPT_Initialize *****************
  1899 ;; Defined at:
  1900 ;;		line 52 in file "mcc_generated_files/interrupt_manager.c"
  1901 ;; Parameters:    Size  Location     Type
  1902 ;;		None
  1903 ;; Auto vars:     Size  Location     Type
  1904 ;;		None
  1905 ;; Return value:  Size  Location     Type
  1906 ;;                  1    wreg      void 
  1907 ;; Registers used:
  1908 ;;		None
  1909 ;; Tracked objects:
  1910 ;;		On entry : 0/0
  1911 ;;		On exit  : 0/0
  1912 ;;		Unchanged: 0/0
  1913 ;; Data sizes:     COMRAM   BANK0   BANK1   BANK2   BANK3   BANK4   BANK5   BANK6   BANK7
  1914 ;;      Params:         0       0       0       0       0       0       0       0       0
  1915 ;;      Locals:         0       0       0       0       0       0       0       0       0
  1916 ;;      Temps:          0       0       0       0       0       0       0       0       0
  1917 ;;      Totals:         0       0       0       0       0       0       0       0       0
  1918 ;;Total ram usage:        0 bytes
  1919 ;; Hardware stack levels used: 1
  1920 ;; Hardware stack levels required when called: 7
  1921 ;; This function calls:
  1922 ;;		Nothing
  1923 ;; This function is called by:
  1924 ;;		_SYSTEM_Initialize
  1925 ;; This function uses a non-reentrant model
  1926 ;;
  1927                           
  1928                           	psect	text16
  1929   001214                     __ptext16:
  1930                           	callstack 0
  1931   001214                     _INTERRUPT_Initialize:
  1932                           	callstack 22
  1933   001214                     
  1934                           ;mcc_generated_files/interrupt_manager.c: 55:     INTCON0bits.IPEN = 1;
  1935   001214  8AD2               	bsf	210,5,c	;volatile
  1936                           
  1937                           ;mcc_generated_files/interrupt_manager.c: 60:     IPR5bits.INT1IP = 1;
  1938   001216  0139               	movlb	57	; () banked
  1939   001218  8185               	bsf	133,0,b	;volatile
  1940                           
  1941                           ;mcc_generated_files/interrupt_manager.c: 64:     IPR3bits.TMR0IP = 0;
  1942   00121A  9F83               	bcf	131,7,b	;volatile
  1943                           
  1944                           ;mcc_generated_files/interrupt_manager.c: 67:     IPR4bits.TMR2IP = 0;
  1945   00121C  9584               	bcf	132,2,b	;volatile
  1946                           
  1947                           ;mcc_generated_files/interrupt_manager.c: 70:     IPR7bits.TMR4IP = 0;
  1948   00121E  9187               	bcf	135,0,b	;volatile
  1949   001220                     
  1950                           ; BSR set to: 57
  1951   001220  0012               	return		;funcret
  1952   001222                     __end_of_INTERRUPT_Initialize:
  1953                           	callstack 0
  1954                           
  1955 ;; *************** function _EXT_INT_Initialize *****************
  1956 ;; Defined at:
  1957 ;;		line 59 in file "mcc_generated_files/ext_int.c"
  1958 ;; Parameters:    Size  Location     Type
  1959 ;;		None
  1960 ;; Auto vars:     Size  Location     Type
  1961 ;;		None
  1962 ;; Return value:  Size  Location     Type
  1963 ;;                  1    wreg      void 
  1964 ;; Registers used:
  1965 ;;		wreg, status,2, status,0, cstack
  1966 ;; Tracked objects:
  1967 ;;		On entry : 0/0
  1968 ;;		On exit  : 0/0
  1969 ;;		Unchanged: 0/0
  1970 ;; Data sizes:     COMRAM   BANK0   BANK1   BANK2   BANK3   BANK4   BANK5   BANK6   BANK7
  1971 ;;      Params:         0       0       0       0       0       0       0       0       0
  1972 ;;      Locals:         0       0       0       0       0       0       0       0       0
  1973 ;;      Temps:          0       0       0       0       0       0       0       0       0
  1974 ;;      Totals:         0       0       0       0       0       0       0       0       0
  1975 ;;Total ram usage:        0 bytes
  1976 ;; Hardware stack levels used: 1
  1977 ;; Hardware stack levels required when called: 8
  1978 ;; This function calls:
  1979 ;;		_INT1_SetInterruptHandler
  1980 ;; This function is called by:
  1981 ;;		_SYSTEM_Initialize
  1982 ;; This function uses a non-reentrant model
  1983 ;;
  1984                           
  1985                           	psect	text17
  1986   0011FC                     __ptext17:
  1987                           	callstack 0
  1988   0011FC                     _EXT_INT_Initialize:
  1989                           	callstack 21
  1990   0011FC                     
  1991                           ;mcc_generated_files/ext_int.c: 64:     (PIR5bits.INT1IF = 0);
  1992   0011FC  0139               	movlb	57	; () banked
  1993   0011FE  91A5               	bcf	165,0,b	;volatile
  1994                           
  1995                           ;mcc_generated_files/ext_int.c: 65:     (INTCON0bits.INT1EDG = 1);
  1996   001200  82D2               	bsf	210,1,c	;volatile
  1997   001202                     
  1998                           ; BSR set to: 57
  1999                           ;mcc_generated_files/ext_int.c: 67:     INT1_SetInterruptHandler(INT1_DefaultInterruptHa
      +                          ndler);
  2000   001202  0E6C               	movlw	low _INT1_DefaultInterruptHandler
  2001   001204  6E37               	movwf	INT1_SetInterruptHandler@InterruptHandler^0,c
  2002   001206  0E12               	movlw	high _INT1_DefaultInterruptHandler
  2003   001208  6E38               	movwf	(INT1_SetInterruptHandler@InterruptHandler+1)^0,c
  2004   00120A  EC25  F009         	call	_INT1_SetInterruptHandler	;wreg free
  2005   00120E                     
  2006                           ;mcc_generated_files/ext_int.c: 68:     (PIE5bits.INT1IE = 1);
  2007   00120E  0139               	movlb	57	; () banked
  2008   001210  8195               	bsf	149,0,b	;volatile
  2009   001212                     
  2010                           ; BSR set to: 57
  2011   001212  0012               	return		;funcret
  2012   001214                     __end_of_EXT_INT_Initialize:
  2013                           	callstack 0
  2014                           
  2015 ;; *************** function _INT1_SetInterruptHandler *****************
  2016 ;; Defined at:
  2017 ;;		line 50 in file "mcc_generated_files/ext_int.c"
  2018 ;; Parameters:    Size  Location     Type
  2019 ;;  InterruptHan    2   13[COMRAM] PTR FTN()void 
  2020 ;;		 -> my_Int1_Isr(1), INT1_DefaultInterruptHandler(1), 
  2021 ;; Auto vars:     Size  Location     Type
  2022 ;;		None
  2023 ;; Return value:  Size  Location     Type
  2024 ;;                  1    wreg      void 
  2025 ;; Registers used:
  2026 ;;		wreg, status,2, status,0
  2027 ;; Tracked objects:
  2028 ;;		On entry : 0/0
  2029 ;;		On exit  : 0/0
  2030 ;;		Unchanged: 0/0
  2031 ;; Data sizes:     COMRAM   BANK0   BANK1   BANK2   BANK3   BANK4   BANK5   BANK6   BANK7
  2032 ;;      Params:         2       0       0       0       0       0       0       0       0
  2033 ;;      Locals:         0       0       0       0       0       0       0       0       0
  2034 ;;      Temps:          0       0       0       0       0       0       0       0       0
  2035 ;;      Totals:         2       0       0       0       0       0       0       0       0
  2036 ;;Total ram usage:        2 bytes
  2037 ;; Hardware stack levels used: 1
  2038 ;; Hardware stack levels required when called: 7
  2039 ;; This function calls:
  2040 ;;		Nothing
  2041 ;; This function is called by:
  2042 ;;		_EXT_INT_Initialize
  2043 ;;		_main
  2044 ;; This function uses a non-reentrant model
  2045 ;;
  2046                           
  2047                           	psect	text18
  2048   00124A                     __ptext18:
  2049                           	callstack 0
  2050   00124A                     _INT1_SetInterruptHandler:
  2051                           	callstack 21
  2052   00124A                     
  2053                           ;mcc_generated_files/ext_int.c: 51:     INT1_InterruptHandler = InterruptHandler;
  2054   00124A  C037  F04D         	movff	INT1_SetInterruptHandler@InterruptHandler,_INT1_InterruptHandler
  2055   00124E  C038  F04E         	movff	INT1_SetInterruptHandler@InterruptHandler+1,_INT1_InterruptHandler+1
  2056   001252  0012               	return		;funcret
  2057   001254                     __end_of_INT1_SetInterruptHandler:
  2058                           	callstack 0
  2059                           
  2060 ;; *************** function _INTERRUPT_InterruptManagerLow *****************
  2061 ;; Defined at:
  2062 ;;		line 87 in file "mcc_generated_files/interrupt_manager.c"
  2063 ;; Parameters:    Size  Location     Type
  2064 ;;		None
  2065 ;; Auto vars:     Size  Location     Type
  2066 ;;		None
  2067 ;; Return value:  Size  Location     Type
  2068 ;;                  1    wreg      void 
  2069 ;; Registers used:
  2070 ;;		wreg, fsr2l, fsr2h, status,2, status,0, pcl, pclath, pclatu, tosl, tblptrl, tblptrh, tblptru, prodl, prodh, cstack
  2071 ;; Tracked objects:
  2072 ;;		On entry : 0/0
  2073 ;;		On exit  : 0/0
  2074 ;;		Unchanged: 0/0
  2075 ;; Data sizes:     COMRAM   BANK0   BANK1   BANK2   BANK3   BANK4   BANK5   BANK6   BANK7
  2076 ;;      Params:         0       0       0       0       0       0       0       0       0
  2077 ;;      Locals:         0       0       0       0       0       0       0       0       0
  2078 ;;      Temps:          7       0       0       0       0       0       0       0       0
  2079 ;;      Totals:         7       0       0       0       0       0       0       0       0
  2080 ;;Total ram usage:        7 bytes
  2081 ;; Hardware stack levels used: 1
  2082 ;; Hardware stack levels required when called: 6
  2083 ;; This function calls:
  2084 ;;		_TMR0_ISR
  2085 ;;		_TMR2_ISR
  2086 ;;		_TMR4_ISR
  2087 ;; This function is called by:
  2088 ;;		Interrupt level 1
  2089 ;; This function uses a non-reentrant model
  2090 ;;
  2091                           
  2092                           	psect	text19
  2093   000D58                     __ptext19:
  2094                           	callstack 0
  2095   000D58                     _INTERRUPT_InterruptManagerLow:
  2096                           	callstack 21
  2097                           
  2098                           ;incstack = 0
  2099   000D58  006F FF60  F030    	movff	status,??_INTERRUPT_InterruptManagerLow
  2100   000D5E  006F FFE8  F031    	movff	pclath,??_INTERRUPT_InterruptManagerLow+1
  2101   000D64  006F FFEC  F032    	movff	pclatu,??_INTERRUPT_InterruptManagerLow+2
  2102   000D6A  006F FFD8  F033    	movff	tblptrl,??_INTERRUPT_InterruptManagerLow+3
  2103   000D70  006F FFDC  F034    	movff	tblptrh,??_INTERRUPT_InterruptManagerLow+4
  2104   000D76  006F FFE0  F035    	movff	tblptru,??_INTERRUPT_InterruptManagerLow+5
  2105   000D7C  006F FFD4  F036    	movff	tablat,??_INTERRUPT_InterruptManagerLow+6
  2106   000D82                     
  2107                           ;mcc_generated_files/interrupt_manager.c: 90:     if(PIE3bits.TMR0IE == 1 && PIR3bits.TM
      +                          R0IF == 1)
  2108   000D82  0139               	movlb	57	; () banked
  2109   000D84  AF93               	btfss	147,7,b	;volatile
  2110   000D86  EFC7  F006         	goto	i1u68_21
  2111   000D8A  EFC9  F006         	goto	i1u68_20
  2112   000D8E                     i1u68_21:
  2113   000D8E  EFD4  F006         	goto	i1l210
  2114   000D92                     i1u68_20:
  2115   000D92                     
  2116                           ; BSR set to: 57
  2117   000D92  AFA3               	btfss	163,7,b	;volatile
  2118   000D94  EFCE  F006         	goto	i1u69_21
  2119   000D98  EFD0  F006         	goto	i1u69_20
  2120   000D9C                     i1u69_21:
  2121   000D9C  EFD4  F006         	goto	i1l210
  2122   000DA0                     i1u69_20:
  2123   000DA0                     
  2124                           ; BSR set to: 57
  2125                           ;mcc_generated_files/interrupt_manager.c: 91:     {;mcc_generated_files/interrupt_manage
      +                          r.c: 92:         TMR0_ISR();
  2126   000DA0  EC36  F008         	call	_TMR0_ISR	;wreg free
  2127                           
  2128                           ;mcc_generated_files/interrupt_manager.c: 93:     }
  2129   000DA4  EFF8  F006         	goto	i1l216
  2130   000DA8                     i1l210:
  2131                           
  2132                           ; BSR set to: 57
  2133   000DA8  A594               	btfss	148,2,b	;volatile
  2134   000DAA  EFD9  F006         	goto	i1u70_21
  2135   000DAE  EFDB  F006         	goto	i1u70_20
  2136   000DB2                     i1u70_21:
  2137   000DB2  EFE6  F006         	goto	i1l212
  2138   000DB6                     i1u70_20:
  2139   000DB6                     
  2140                           ; BSR set to: 57
  2141   000DB6  A5A4               	btfss	164,2,b	;volatile
  2142   000DB8  EFE0  F006         	goto	i1u71_21
  2143   000DBC  EFE2  F006         	goto	i1u71_20
  2144   000DC0                     i1u71_21:
  2145   000DC0  EFE6  F006         	goto	i1l212
  2146   000DC4                     i1u71_20:
  2147   000DC4                     
  2148                           ; BSR set to: 57
  2149                           ;mcc_generated_files/interrupt_manager.c: 95:     {;mcc_generated_files/interrupt_manage
      +                          r.c: 96:         TMR2_ISR();
  2150   000DC4  EC1D  F008         	call	_TMR2_ISR	;wreg free
  2151                           
  2152                           ;mcc_generated_files/interrupt_manager.c: 97:     }
  2153   000DC8  EFF8  F006         	goto	i1l216
  2154   000DCC                     i1l212:
  2155                           
  2156                           ; BSR set to: 57
  2157   000DCC  A197               	btfss	151,0,b	;volatile
  2158   000DCE  EFEB  F006         	goto	i1u72_21
  2159   000DD2  EFED  F006         	goto	i1u72_20
  2160   000DD6                     i1u72_21:
  2161   000DD6  EFF8  F006         	goto	i1l213
  2162   000DDA                     i1u72_20:
  2163   000DDA                     
  2164                           ; BSR set to: 57
  2165   000DDA  A1A7               	btfss	167,0,b	;volatile
  2166   000DDC  EFF2  F006         	goto	i1u73_21
  2167   000DE0  EFF4  F006         	goto	i1u73_20
  2168   000DE4                     i1u73_21:
  2169   000DE4  EFF8  F006         	goto	i1l213
  2170   000DE8                     i1u73_20:
  2171   000DE8                     
  2172                           ; BSR set to: 57
  2173                           ;mcc_generated_files/interrupt_manager.c: 99:     {;mcc_generated_files/interrupt_manage
      +                          r.c: 100:         TMR4_ISR();
  2174   000DE8  EC04  F008         	call	_TMR4_ISR	;wreg free
  2175                           
  2176                           ;mcc_generated_files/interrupt_manager.c: 101:     }
  2177   000DEC  EFF8  F006         	goto	i1l216
  2178   000DF0                     i1l213:
  2179   000DF0                     i1l216:
  2180   000DF0  0060  F0DB  FFF5   	movff	??_INTERRUPT_InterruptManagerLow+6,tablat
  2181   000DF6  0060  F0D7  FFF8   	movff	??_INTERRUPT_InterruptManagerLow+5,tblptru
  2182   000DFC  0060  F0D3  FFF7   	movff	??_INTERRUPT_InterruptManagerLow+4,tblptrh
  2183   000E02  0060  F0CF  FFF6   	movff	??_INTERRUPT_InterruptManagerLow+3,tblptrl
  2184   000E08  0060  F0CB  FFFB   	movff	??_INTERRUPT_InterruptManagerLow+2,pclatu
  2185   000E0E  0060  F0C7  FFFA   	movff	??_INTERRUPT_InterruptManagerLow+1,pclath
  2186   000E14  0060  F0C3  FFD8   	movff	??_INTERRUPT_InterruptManagerLow,status
  2187   000E1A  0011               	retfie		f
  2188   000E1C                     __end_of_INTERRUPT_InterruptManagerLow:
  2189                           	callstack 0
  2190                           
  2191 ;; *************** function _TMR4_ISR *****************
  2192 ;; Defined at:
  2193 ;;		line 165 in file "mcc_generated_files/tmr4.c"
  2194 ;; Parameters:    Size  Location     Type
  2195 ;;		None
  2196 ;; Auto vars:     Size  Location     Type
  2197 ;;		None
  2198 ;; Return value:  Size  Location     Type
  2199 ;;                  1    wreg      void 
  2200 ;; Registers used:
  2201 ;;		wreg, fsr2l, fsr2h, status,2, status,0, pcl, pclath, pclatu, tosl, tblptrl, tblptrh, tblptru, prodl, prodh, cstack
  2202 ;; Tracked objects:
  2203 ;;		On entry : 0/0
  2204 ;;		On exit  : 0/0
  2205 ;;		Unchanged: 0/0
  2206 ;; Data sizes:     COMRAM   BANK0   BANK1   BANK2   BANK3   BANK4   BANK5   BANK6   BANK7
  2207 ;;      Params:         0       0       0       0       0       0       0       0       0
  2208 ;;      Locals:         0       0       0       0       0       0       0       0       0
  2209 ;;      Temps:          0       0       0       0       0       0       0       0       0
  2210 ;;      Totals:         0       0       0       0       0       0       0       0       0
  2211 ;;Total ram usage:        0 bytes
  2212 ;; Hardware stack levels used: 1
  2213 ;; Hardware stack levels required when called: 5
  2214 ;; This function calls:
  2215 ;;		NULL
  2216 ;;		_TMR4_DefaultInterruptHandler
  2217 ;;		_my_fading_isr
  2218 ;; This function is called by:
  2219 ;;		_INTERRUPT_InterruptManagerLow
  2220 ;; This function uses a non-reentrant model
  2221 ;;
  2222                           
  2223                           	psect	text20
  2224   001008                     __ptext20:
  2225                           	callstack 0
  2226   001008                     _TMR4_ISR:
  2227                           	callstack 21
  2228   001008                     
  2229                           ;mcc_generated_files/tmr4.c: 169:     PIR7bits.TMR4IF = 0;
  2230   001008  0139               	movlb	57	; () banked
  2231   00100A  91A7               	bcf	167,0,b	;volatile
  2232   00100C                     
  2233                           ; BSR set to: 57
  2234                           ;mcc_generated_files/tmr4.c: 171:     if(TMR4_InterruptHandler)
  2235   00100C  5049               	movf	_TMR4_InterruptHandler^0,w,c
  2236   00100E  104A               	iorwf	(_TMR4_InterruptHandler+1)^0,w,c
  2237   001010  B4D8               	btfsc	status,2,c
  2238   001012  EF0D  F008         	goto	i1u63_21
  2239   001016  EF0F  F008         	goto	i1u63_20
  2240   00101A                     i1u63_21:
  2241   00101A  EF1C  F008         	goto	i1l398
  2242   00101E                     i1u63_20:
  2243   00101E                     
  2244                           ; BSR set to: 57
  2245                           ;mcc_generated_files/tmr4.c: 172:     {;mcc_generated_files/tmr4.c: 173:         TMR4_In
      +                          terruptHandler();
  2246   00101E  D802               	call	i1u64_28
  2247   001020  EF1C  F008         	goto	i1u64_29
  2248   001024                     i1u64_28:
  2249   001024  0005               	push	
  2250   001026  6EFA               	movwf	pclath,c
  2251   001028  5049               	movf	_TMR4_InterruptHandler^0,w,c
  2252   00102A  6EFD               	movwf	tosl,c
  2253   00102C  504A               	movf	(_TMR4_InterruptHandler+1)^0,w,c
  2254   00102E  6EFE               	movwf	tosh,c
  2255   001030  50F8               	movf	tblptru,w,c
  2256   001032  6EFF               	movwf	tosu,c
  2257   001034  50FA               	movf	pclath,w,c
  2258   001036  0012               	return		;indir
  2259   001038                     i1u64_29:
  2260   001038                     i1l398:
  2261   001038  0012               	return		;funcret
  2262   00103A                     __end_of_TMR4_ISR:
  2263                           	callstack 0
  2264                           
  2265 ;; *************** function _TMR4_DefaultInterruptHandler *****************
  2266 ;; Defined at:
  2267 ;;		line 182 in file "mcc_generated_files/tmr4.c"
  2268 ;; Parameters:    Size  Location     Type
  2269 ;;		None
  2270 ;; Auto vars:     Size  Location     Type
  2271 ;;		None
  2272 ;; Return value:  Size  Location     Type
  2273 ;;                  1    wreg      void 
  2274 ;; Registers used:
  2275 ;;		None
  2276 ;; Tracked objects:
  2277 ;;		On entry : 0/0
  2278 ;;		On exit  : 0/0
  2279 ;;		Unchanged: 0/0
  2280 ;; Data sizes:     COMRAM   BANK0   BANK1   BANK2   BANK3   BANK4   BANK5   BANK6   BANK7
  2281 ;;      Params:         0       0       0       0       0       0       0       0       0
  2282 ;;      Locals:         0       0       0       0       0       0       0       0       0
  2283 ;;      Temps:          0       0       0       0       0       0       0       0       0
  2284 ;;      Totals:         0       0       0       0       0       0       0       0       0
  2285 ;;Total ram usage:        0 bytes
  2286 ;; Hardware stack levels used: 1
  2287 ;; Hardware stack levels required when called: 4
  2288 ;; This function calls:
  2289 ;;		Nothing
  2290 ;; This function is called by:
  2291 ;;		_TMR4_Initialize
  2292 ;;		_TMR4_ISR
  2293 ;; This function uses a non-reentrant model
  2294 ;;
  2295                           
  2296                           	psect	text21
  2297   001266                     __ptext21:
  2298                           	callstack 0
  2299   001266                     _TMR4_DefaultInterruptHandler:
  2300                           	callstack 21
  2301   001266  0012               	return		;funcret
  2302   001268                     __end_of_TMR4_DefaultInterruptHandler:
  2303                           	callstack 0
  2304                           
  2305 ;; *************** function _my_fading_isr *****************
  2306 ;; Defined at:
  2307 ;;		line 110 in file "main.c"
  2308 ;; Parameters:    Size  Location     Type
  2309 ;;		None
  2310 ;; Auto vars:     Size  Location     Type
  2311 ;;  io              1    5[COMRAM] unsigned char 
  2312 ;; Return value:  Size  Location     Type
  2313 ;;                  1    wreg      void 
  2314 ;; Registers used:
  2315 ;;		wreg, fsr2l, fsr2h, status,2, status,0, tblptrl, tblptrh, tblptru, prodl, prodh
  2316 ;; Tracked objects:
  2317 ;;		On entry : 0/0
  2318 ;;		On exit  : 0/0
  2319 ;;		Unchanged: 0/0
  2320 ;; Data sizes:     COMRAM   BANK0   BANK1   BANK2   BANK3   BANK4   BANK5   BANK6   BANK7
  2321 ;;      Params:         0       0       0       0       0       0       0       0       0
  2322 ;;      Locals:         1       0       0       0       0       0       0       0       0
  2323 ;;      Temps:          3       0       0       0       0       0       0       0       0
  2324 ;;      Totals:         4       0       0       0       0       0       0       0       0
  2325 ;;Total ram usage:        4 bytes
  2326 ;; Hardware stack levels used: 1
  2327 ;; Hardware stack levels required when called: 4
  2328 ;; This function calls:
  2329 ;;		Nothing
  2330 ;; This function is called by:
  2331 ;;		_main
  2332 ;;		_TMR4_ISR
  2333 ;; This function uses a non-reentrant model
  2334 ;;
  2335                           
  2336                           	psect	text22
  2337   000C82                     __ptext22:
  2338                           	callstack 0
  2339   000C82                     _my_fading_isr:
  2340                           	callstack 21
  2341   000C82                     
  2342                           ;main.c: 112:     uint8_t io;;main.c: 117:     for (io=0; io<=15; io++) {
  2343   000C82  0E00               	movlw	0
  2344   000C84  6E2F               	movwf	my_fading_isr@io^0,c
  2345   000C86                     i1l1737:
  2346                           
  2347                           ;main.c: 119:         if ( ((lampstatus) & (1u << (io))) == 0) {
  2348   000C86  C02F  F02C         	movff	my_fading_isr@io,??_my_fading_isr
  2349   000C8A  0E01               	movlw	1
  2350   000C8C  6E2D               	movwf	(??_my_fading_isr+1)^0,c
  2351   000C8E  0E00               	movlw	0
  2352   000C90  6E2E               	movwf	(??_my_fading_isr+2)^0,c
  2353   000C92  2A2C               	incf	??_my_fading_isr^0,f,c
  2354   000C94  EF4F  F006         	goto	i1u57_24
  2355   000C98                     i1u57_25:
  2356   000C98  90D8               	bcf	status,0,c
  2357   000C9A  362D               	rlcf	(??_my_fading_isr+1)^0,f,c
  2358   000C9C  362E               	rlcf	(??_my_fading_isr+2)^0,f,c
  2359   000C9E                     i1u57_24:
  2360   000C9E  2E2C               	decfsz	??_my_fading_isr^0,f,c
  2361   000CA0  EF4C  F006         	goto	i1u57_25
  2362   000CA4  5025               	movf	_lampstatus^0,w,c	;volatile
  2363   000CA6  162D               	andwf	(??_my_fading_isr+1)^0,f,c
  2364   000CA8  5026               	movf	(_lampstatus+1)^0,w,c	;volatile
  2365   000CAA  162E               	andwf	(??_my_fading_isr+2)^0,f,c
  2366   000CAC  502D               	movf	(??_my_fading_isr+1)^0,w,c
  2367   000CAE  102E               	iorwf	(??_my_fading_isr+2)^0,w,c
  2368   000CB0  A4D8               	btfss	status,2,c
  2369   000CB2  EF5D  F006         	goto	i1u58_21
  2370   000CB6  EF5F  F006         	goto	i1u58_20
  2371   000CBA                     i1u58_21:
  2372   000CBA  EF8E  F006         	goto	i1l1745
  2373   000CBE                     i1u58_20:
  2374   000CBE                     
  2375                           ;main.c: 120:             if (pwm_phase[io] != 0) {
  2376   000CBE  502F               	movf	my_fading_isr@io^0,w,c
  2377   000CC0  0F60               	addlw	low _pwm_phase
  2378   000CC2  6ED9               	movwf	fsr2l,c
  2379   000CC4  6ADA               	clrf	fsr2h,c
  2380   000CC6  50DF               	movf	indf2,w,c
  2381   000CC8  B4D8               	btfsc	status,2,c
  2382   000CCA  EF69  F006         	goto	i1u59_21
  2383   000CCE  EF6B  F006         	goto	i1u59_20
  2384   000CD2                     i1u59_21:
  2385   000CD2  EFA2  F006         	goto	i1l1751
  2386   000CD6                     i1u59_20:
  2387   000CD6                     
  2388                           ;main.c: 121:             --pwm_phase[io];
  2389   000CD6  502F               	movf	my_fading_isr@io^0,w,c
  2390   000CD8  0F60               	addlw	low _pwm_phase
  2391   000CDA  6ED9               	movwf	fsr2l,c
  2392   000CDC  6ADA               	clrf	fsr2h,c
  2393   000CDE  06DF               	decf	indf2,f,c
  2394   000CE0                     i1l1743:
  2395                           
  2396                           ;main.c: 122:             pwm_setting[io] = pwm_table[pwm_phase[io]];
  2397   000CE0  502F               	movf	my_fading_isr@io^0,w,c
  2398   000CE2  0F60               	addlw	low _pwm_phase
  2399   000CE4  6ED9               	movwf	fsr2l,c
  2400   000CE6  6ADA               	clrf	fsr2h,c
  2401   000CE8  50DF               	movf	indf2,w,c
  2402   000CEA  0D02               	mullw	2
  2403   000CEC  50F3               	movf	243,w,c
  2404   000CEE  0F01               	addlw	low _pwm_table
  2405   000CF0  6E2C               	movwf	??_my_fading_isr^0,c
  2406   000CF2  0060  F0B3  FFF6   	movff	??_my_fading_isr,tblptrl
  2407   000CF8                     	if	1	;There is more than 1 active tblptr byte
  2408   000CF8  0E08               	movlw	high __smallconst
  2409   000CFA  6EF7               	movwf	tblptrh,c
  2410   000CFC                     	endif
  2411   000CFC                     	if	0	;tblptru may be non-zero
  2412   000CFC                     	endif
  2413   000CFC                     	if	0	;tblptru may be non-zero
  2414   000CFC                     	endif
  2415   000CFC  502F               	movf	my_fading_isr@io^0,w,c
  2416   000CFE  0D02               	mullw	2
  2417   000D00  50F3               	movf	243,w,c
  2418   000D02  0F01               	addlw	low _pwm_setting
  2419   000D04  6ED9               	movwf	fsr2l,c
  2420   000D06  6ADA               	clrf	fsr2h,c
  2421   000D08  0009               	tblrd		*+
  2422   000D0A  006F FFD7 FFDE     	movff	tablat,postinc2
  2423   000D10  0008               	tblrd		*
  2424   000D12  006F FFD7 FFDD     	movff	tablat,postdec2
  2425   000D18  EFA2  F006         	goto	i1l1751
  2426   000D1C                     i1l1745:
  2427                           
  2428                           ;main.c: 126:             if (pwm_phase[io] != 31) {
  2429   000D1C  502F               	movf	my_fading_isr@io^0,w,c
  2430   000D1E  0F60               	addlw	low _pwm_phase
  2431   000D20  6ED9               	movwf	fsr2l,c
  2432   000D22  6ADA               	clrf	fsr2h,c
  2433   000D24  0E1F               	movlw	31
  2434   000D26  18DE               	xorwf	postinc2,w,c
  2435   000D28  B4D8               	btfsc	status,2,c
  2436   000D2A  EF99  F006         	goto	i1u60_21
  2437   000D2E  EF9B  F006         	goto	i1u60_20
  2438   000D32                     i1u60_21:
  2439   000D32  EFA2  F006         	goto	i1l1751
  2440   000D36                     i1u60_20:
  2441   000D36                     
  2442                           ;main.c: 127:             ++pwm_phase[io];
  2443   000D36  502F               	movf	my_fading_isr@io^0,w,c
  2444   000D38  0F60               	addlw	low _pwm_phase
  2445   000D3A  6ED9               	movwf	fsr2l,c
  2446   000D3C  6ADA               	clrf	fsr2h,c
  2447   000D3E  2ADF               	incf	indf2,f,c
  2448   000D40  EF70  F006         	goto	i1l1743
  2449   000D44                     i1l1751:
  2450                           
  2451                           ;main.c: 131:     }
  2452   000D44  2A2F               	incf	my_fading_isr@io^0,f,c
  2453   000D46  0E0F               	movlw	15
  2454   000D48  642F               	cpfsgt	my_fading_isr@io^0,c
  2455   000D4A  EFA9  F006         	goto	i1u61_21
  2456   000D4E  EFAB  F006         	goto	i1u61_20
  2457   000D52                     i1u61_21:
  2458   000D52  EF43  F006         	goto	i1l1737
  2459   000D56                     i1u61_20:
  2460   000D56  0012               	return		;funcret
  2461   000D58                     __end_of_my_fading_isr:
  2462                           	callstack 0
  2463                           
  2464 ;; *************** function _TMR2_ISR *****************
  2465 ;; Defined at:
  2466 ;;		line 165 in file "mcc_generated_files/tmr2.c"
  2467 ;; Parameters:    Size  Location     Type
  2468 ;;		None
  2469 ;; Auto vars:     Size  Location     Type
  2470 ;;		None
  2471 ;; Return value:  Size  Location     Type
  2472 ;;                  1    wreg      void 
  2473 ;; Registers used:
  2474 ;;		wreg, status,2, status,0, pcl, pclath, pclatu, tosl, cstack
  2475 ;; Tracked objects:
  2476 ;;		On entry : 0/0
  2477 ;;		On exit  : 0/0
  2478 ;;		Unchanged: 0/0
  2479 ;; Data sizes:     COMRAM   BANK0   BANK1   BANK2   BANK3   BANK4   BANK5   BANK6   BANK7
  2480 ;;      Params:         0       0       0       0       0       0       0       0       0
  2481 ;;      Locals:         0       0       0       0       0       0       0       0       0
  2482 ;;      Temps:          0       0       0       0       0       0       0       0       0
  2483 ;;      Totals:         0       0       0       0       0       0       0       0       0
  2484 ;;Total ram usage:        0 bytes
  2485 ;; Hardware stack levels used: 1
  2486 ;; Hardware stack levels required when called: 5
  2487 ;; This function calls:
  2488 ;;		NULL
  2489 ;;		_TMR2_DefaultInterruptHandler
  2490 ;;		_my_pwm_isr
  2491 ;; This function is called by:
  2492 ;;		_INTERRUPT_InterruptManagerLow
  2493 ;; This function uses a non-reentrant model
  2494 ;;
  2495                           
  2496                           	psect	text23
  2497   00103A                     __ptext23:
  2498                           	callstack 0
  2499   00103A                     _TMR2_ISR:
  2500                           	callstack 21
  2501   00103A                     
  2502                           ;mcc_generated_files/tmr2.c: 169:     PIR4bits.TMR2IF = 0;
  2503   00103A  0139               	movlb	57	; () banked
  2504   00103C  95A4               	bcf	164,2,b	;volatile
  2505   00103E                     
  2506                           ; BSR set to: 57
  2507                           ;mcc_generated_files/tmr2.c: 171:     if(TMR2_InterruptHandler)
  2508   00103E  504B               	movf	_TMR2_InterruptHandler^0,w,c
  2509   001040  104C               	iorwf	(_TMR2_InterruptHandler+1)^0,w,c
  2510   001042  B4D8               	btfsc	status,2,c
  2511   001044  EF26  F008         	goto	i1u30_21
  2512   001048  EF28  F008         	goto	i1u30_20
  2513   00104C                     i1u30_21:
  2514   00104C  EF35  F008         	goto	i1l317
  2515   001050                     i1u30_20:
  2516   001050                     
  2517                           ; BSR set to: 57
  2518                           ;mcc_generated_files/tmr2.c: 172:     {;mcc_generated_files/tmr2.c: 173:         TMR2_In
      +                          terruptHandler();
  2519   001050  D802               	call	i1u31_28
  2520   001052  EF35  F008         	goto	i1u31_29
  2521   001056                     i1u31_28:
  2522   001056  0005               	push	
  2523   001058  6EFA               	movwf	pclath,c
  2524   00105A  504B               	movf	_TMR2_InterruptHandler^0,w,c
  2525   00105C  6EFD               	movwf	tosl,c
  2526   00105E  504C               	movf	(_TMR2_InterruptHandler+1)^0,w,c
  2527   001060  6EFE               	movwf	tosh,c
  2528   001062  50F8               	movf	tblptru,w,c
  2529   001064  6EFF               	movwf	tosu,c
  2530   001066  50FA               	movf	pclath,w,c
  2531   001068  0012               	return		;indir
  2532   00106A                     i1u31_29:
  2533   00106A                     i1l317:
  2534   00106A  0012               	return		;funcret
  2535   00106C                     __end_of_TMR2_ISR:
  2536                           	callstack 0
  2537                           
  2538 ;; *************** function _TMR2_DefaultInterruptHandler *****************
  2539 ;; Defined at:
  2540 ;;		line 182 in file "mcc_generated_files/tmr2.c"
  2541 ;; Parameters:    Size  Location     Type
  2542 ;;		None
  2543 ;; Auto vars:     Size  Location     Type
  2544 ;;		None
  2545 ;; Return value:  Size  Location     Type
  2546 ;;                  1    wreg      void 
  2547 ;; Registers used:
  2548 ;;		None
  2549 ;; Tracked objects:
  2550 ;;		On entry : 0/0
  2551 ;;		On exit  : 0/0
  2552 ;;		Unchanged: 0/0
  2553 ;; Data sizes:     COMRAM   BANK0   BANK1   BANK2   BANK3   BANK4   BANK5   BANK6   BANK7
  2554 ;;      Params:         0       0       0       0       0       0       0       0       0
  2555 ;;      Locals:         0       0       0       0       0       0       0       0       0
  2556 ;;      Temps:          0       0       0       0       0       0       0       0       0
  2557 ;;      Totals:         0       0       0       0       0       0       0       0       0
  2558 ;;Total ram usage:        0 bytes
  2559 ;; Hardware stack levels used: 1
  2560 ;; Hardware stack levels required when called: 4
  2561 ;; This function calls:
  2562 ;;		Nothing
  2563 ;; This function is called by:
  2564 ;;		_TMR2_Initialize
  2565 ;;		_TMR2_ISR
  2566 ;; This function uses a non-reentrant model
  2567 ;;
  2568                           
  2569                           	psect	text24
  2570   001268                     __ptext24:
  2571                           	callstack 0
  2572   001268                     _TMR2_DefaultInterruptHandler:
  2573                           	callstack 21
  2574   001268  0012               	return		;funcret
  2575   00126A                     __end_of_TMR2_DefaultInterruptHandler:
  2576                           	callstack 0
  2577                           
  2578 ;; *************** function _my_pwm_isr *****************
  2579 ;; Defined at:
  2580 ;;		line 136 in file "main.c"
  2581 ;; Parameters:    Size  Location     Type
  2582 ;;		None
  2583 ;; Auto vars:     Size  Location     Type
  2584 ;;  tmp2            1    5[COMRAM] unsigned char 
  2585 ;;  tmp1            1    4[COMRAM] unsigned char 
  2586 ;; Return value:  Size  Location     Type
  2587 ;;                  1    wreg      void 
  2588 ;; Registers used:
  2589 ;;		wreg, status,2, status,0
  2590 ;; Tracked objects:
  2591 ;;		On entry : 0/0
  2592 ;;		On exit  : 0/0
  2593 ;;		Unchanged: 0/0
  2594 ;; Data sizes:     COMRAM   BANK0   BANK1   BANK2   BANK3   BANK4   BANK5   BANK6   BANK7
  2595 ;;      Params:         0       0       0       0       0       0       0       0       0
  2596 ;;      Locals:         2       0       0       0       0       0       0       0       0
  2597 ;;      Temps:          2       0       0       0       0       0       0       0       0
  2598 ;;      Totals:         4       0       0       0       0       0       0       0       0
  2599 ;;Total ram usage:        4 bytes
  2600 ;; Hardware stack levels used: 1
  2601 ;; Hardware stack levels required when called: 4
  2602 ;; This function calls:
  2603 ;;		Nothing
  2604 ;; This function is called by:
  2605 ;;		_main
  2606 ;;		_TMR2_ISR
  2607 ;; This function uses a non-reentrant model
  2608 ;;
  2609                           
  2610                           	psect	text25
  2611   000A70                     __ptext25:
  2612                           	callstack 0
  2613   000A70                     _my_pwm_isr:
  2614                           	callstack 21
  2615   000A70                     
  2616                           ;main.c: 138:     static uint8_t pwm_cnt=0;;main.c: 139:     uint8_t tmp1 = 0;
  2617   000A70  0E00               	movlw	0
  2618   000A72  6E2E               	movwf	my_pwm_isr@tmp1^0,c
  2619                           
  2620                           ;main.c: 140:     uint8_t tmp2 = 0;
  2621   000A74  0E00               	movlw	0
  2622   000A76  6E2F               	movwf	my_pwm_isr@tmp2^0,c
  2623   000A78                     
  2624                           ;main.c: 144:     if (pwm_setting[0] > pwm_cnt) tmp1 |= (1<<0);
  2625   000A78  5029               	movf	my_pwm_isr@pwm_cnt^0,w,c
  2626   000A7A  6E2C               	movwf	??_my_pwm_isr^0,c
  2627   000A7C  6A2D               	clrf	(??_my_pwm_isr+1)^0,c
  2628   000A7E  5001               	movf	_pwm_setting^0,w,c	;volatile
  2629   000A80  5C2C               	subwf	??_my_pwm_isr^0,w,c
  2630   000A82  5002               	movf	(_pwm_setting+1)^0,w,c	;volatile
  2631   000A84  582D               	subwfb	(??_my_pwm_isr+1)^0,w,c
  2632   000A86  B0D8               	btfsc	status,0,c
  2633   000A88  EF48  F005         	goto	i1u10_21
  2634   000A8C  EF4A  F005         	goto	i1u10_20
  2635   000A90                     i1u10_21:
  2636   000A90  EF4B  F005         	goto	i1l1353
  2637   000A94                     i1u10_20:
  2638   000A94  802E               	bsf	my_pwm_isr@tmp1^0,0,c
  2639   000A96                     i1l1353:
  2640                           
  2641                           ;main.c: 145:     if (pwm_setting[1] > pwm_cnt) tmp1 |= (1<<1);
  2642   000A96  5029               	movf	my_pwm_isr@pwm_cnt^0,w,c
  2643   000A98  6E2C               	movwf	??_my_pwm_isr^0,c
  2644   000A9A  6A2D               	clrf	(??_my_pwm_isr+1)^0,c
  2645   000A9C  5003               	movf	(_pwm_setting+2)^0,w,c	;volatile
  2646   000A9E  5C2C               	subwf	??_my_pwm_isr^0,w,c
  2647   000AA0  5004               	movf	(_pwm_setting+3)^0,w,c	;volatile
  2648   000AA2  582D               	subwfb	(??_my_pwm_isr+1)^0,w,c
  2649   000AA4  B0D8               	btfsc	status,0,c
  2650   000AA6  EF57  F005         	goto	i1u11_21
  2651   000AAA  EF59  F005         	goto	i1u11_20
  2652   000AAE                     i1u11_21:
  2653   000AAE  EF5A  F005         	goto	i1l1357
  2654   000AB2                     i1u11_20:
  2655   000AB2  822E               	bsf	my_pwm_isr@tmp1^0,1,c
  2656   000AB4                     i1l1357:
  2657                           
  2658                           ;main.c: 146:     if (pwm_setting[2] > pwm_cnt) tmp1 |= (1<<2);
  2659   000AB4  5029               	movf	my_pwm_isr@pwm_cnt^0,w,c
  2660   000AB6  6E2C               	movwf	??_my_pwm_isr^0,c
  2661   000AB8  6A2D               	clrf	(??_my_pwm_isr+1)^0,c
  2662   000ABA  5005               	movf	(_pwm_setting+4)^0,w,c	;volatile
  2663   000ABC  5C2C               	subwf	??_my_pwm_isr^0,w,c
  2664   000ABE  5006               	movf	(_pwm_setting+5)^0,w,c	;volatile
  2665   000AC0  582D               	subwfb	(??_my_pwm_isr+1)^0,w,c
  2666   000AC2  B0D8               	btfsc	status,0,c
  2667   000AC4  EF66  F005         	goto	i1u12_21
  2668   000AC8  EF68  F005         	goto	i1u12_20
  2669   000ACC                     i1u12_21:
  2670   000ACC  EF69  F005         	goto	i1l1361
  2671   000AD0                     i1u12_20:
  2672   000AD0  842E               	bsf	my_pwm_isr@tmp1^0,2,c
  2673   000AD2                     i1l1361:
  2674                           
  2675                           ;main.c: 147:     if (pwm_setting[3] > pwm_cnt) tmp1 |= (1<<3);
  2676   000AD2  5029               	movf	my_pwm_isr@pwm_cnt^0,w,c
  2677   000AD4  6E2C               	movwf	??_my_pwm_isr^0,c
  2678   000AD6  6A2D               	clrf	(??_my_pwm_isr+1)^0,c
  2679   000AD8  5007               	movf	(_pwm_setting+6)^0,w,c	;volatile
  2680   000ADA  5C2C               	subwf	??_my_pwm_isr^0,w,c
  2681   000ADC  5008               	movf	(_pwm_setting+7)^0,w,c	;volatile
  2682   000ADE  582D               	subwfb	(??_my_pwm_isr+1)^0,w,c
  2683   000AE0  B0D8               	btfsc	status,0,c
  2684   000AE2  EF75  F005         	goto	i1u13_21
  2685   000AE6  EF77  F005         	goto	i1u13_20
  2686   000AEA                     i1u13_21:
  2687   000AEA  EF78  F005         	goto	i1l1365
  2688   000AEE                     i1u13_20:
  2689   000AEE  862E               	bsf	my_pwm_isr@tmp1^0,3,c
  2690   000AF0                     i1l1365:
  2691                           
  2692                           ;main.c: 148:     if (pwm_setting[4] > pwm_cnt) tmp1 |= (1<<4);
  2693   000AF0  5029               	movf	my_pwm_isr@pwm_cnt^0,w,c
  2694   000AF2  6E2C               	movwf	??_my_pwm_isr^0,c
  2695   000AF4  6A2D               	clrf	(??_my_pwm_isr+1)^0,c
  2696   000AF6  5009               	movf	(_pwm_setting+8)^0,w,c	;volatile
  2697   000AF8  5C2C               	subwf	??_my_pwm_isr^0,w,c
  2698   000AFA  500A               	movf	(_pwm_setting+9)^0,w,c	;volatile
  2699   000AFC  582D               	subwfb	(??_my_pwm_isr+1)^0,w,c
  2700   000AFE  B0D8               	btfsc	status,0,c
  2701   000B00  EF84  F005         	goto	i1u14_21
  2702   000B04  EF86  F005         	goto	i1u14_20
  2703   000B08                     i1u14_21:
  2704   000B08  EF87  F005         	goto	i1l1369
  2705   000B0C                     i1u14_20:
  2706   000B0C  882E               	bsf	my_pwm_isr@tmp1^0,4,c
  2707   000B0E                     i1l1369:
  2708                           
  2709                           ;main.c: 149:     if (pwm_setting[5] > pwm_cnt) tmp1 |= (1<<5);
  2710   000B0E  5029               	movf	my_pwm_isr@pwm_cnt^0,w,c
  2711   000B10  6E2C               	movwf	??_my_pwm_isr^0,c
  2712   000B12  6A2D               	clrf	(??_my_pwm_isr+1)^0,c
  2713   000B14  500B               	movf	(_pwm_setting+10)^0,w,c	;volatile
  2714   000B16  5C2C               	subwf	??_my_pwm_isr^0,w,c
  2715   000B18  500C               	movf	(_pwm_setting+11)^0,w,c	;volatile
  2716   000B1A  582D               	subwfb	(??_my_pwm_isr+1)^0,w,c
  2717   000B1C  B0D8               	btfsc	status,0,c
  2718   000B1E  EF93  F005         	goto	i1u15_21
  2719   000B22  EF95  F005         	goto	i1u15_20
  2720   000B26                     i1u15_21:
  2721   000B26  EF96  F005         	goto	i1l1373
  2722   000B2A                     i1u15_20:
  2723   000B2A  8A2E               	bsf	my_pwm_isr@tmp1^0,5,c
  2724   000B2C                     i1l1373:
  2725                           
  2726                           ;main.c: 150:     if (pwm_setting[6] > pwm_cnt) tmp1 |= (1<<6);
  2727   000B2C  5029               	movf	my_pwm_isr@pwm_cnt^0,w,c
  2728   000B2E  6E2C               	movwf	??_my_pwm_isr^0,c
  2729   000B30  6A2D               	clrf	(??_my_pwm_isr+1)^0,c
  2730   000B32  500D               	movf	(_pwm_setting+12)^0,w,c	;volatile
  2731   000B34  5C2C               	subwf	??_my_pwm_isr^0,w,c
  2732   000B36  500E               	movf	(_pwm_setting+13)^0,w,c	;volatile
  2733   000B38  582D               	subwfb	(??_my_pwm_isr+1)^0,w,c
  2734   000B3A  B0D8               	btfsc	status,0,c
  2735   000B3C  EFA2  F005         	goto	i1u16_21
  2736   000B40  EFA4  F005         	goto	i1u16_20
  2737   000B44                     i1u16_21:
  2738   000B44  EFA5  F005         	goto	i1l1377
  2739   000B48                     i1u16_20:
  2740   000B48  8C2E               	bsf	my_pwm_isr@tmp1^0,6,c
  2741   000B4A                     i1l1377:
  2742                           
  2743                           ;main.c: 151:     if (pwm_setting[7] > pwm_cnt) tmp1 |= (1<<7);
  2744   000B4A  5029               	movf	my_pwm_isr@pwm_cnt^0,w,c
  2745   000B4C  6E2C               	movwf	??_my_pwm_isr^0,c
  2746   000B4E  6A2D               	clrf	(??_my_pwm_isr+1)^0,c
  2747   000B50  500F               	movf	(_pwm_setting+14)^0,w,c	;volatile
  2748   000B52  5C2C               	subwf	??_my_pwm_isr^0,w,c
  2749   000B54  5010               	movf	(_pwm_setting+15)^0,w,c	;volatile
  2750   000B56  582D               	subwfb	(??_my_pwm_isr+1)^0,w,c
  2751   000B58  B0D8               	btfsc	status,0,c
  2752   000B5A  EFB1  F005         	goto	i1u17_21
  2753   000B5E  EFB3  F005         	goto	i1u17_20
  2754   000B62                     i1u17_21:
  2755   000B62  EFB4  F005         	goto	i1l1381
  2756   000B66                     i1u17_20:
  2757   000B66  8E2E               	bsf	my_pwm_isr@tmp1^0,7,c
  2758   000B68                     i1l1381:
  2759                           
  2760                           ;main.c: 153:     if (pwm_setting[8] > pwm_cnt) tmp2 |= (1<<0);
  2761   000B68  5029               	movf	my_pwm_isr@pwm_cnt^0,w,c
  2762   000B6A  6E2C               	movwf	??_my_pwm_isr^0,c
  2763   000B6C  6A2D               	clrf	(??_my_pwm_isr+1)^0,c
  2764   000B6E  5011               	movf	(_pwm_setting+16)^0,w,c	;volatile
  2765   000B70  5C2C               	subwf	??_my_pwm_isr^0,w,c
  2766   000B72  5012               	movf	(_pwm_setting+17)^0,w,c	;volatile
  2767   000B74  582D               	subwfb	(??_my_pwm_isr+1)^0,w,c
  2768   000B76  B0D8               	btfsc	status,0,c
  2769   000B78  EFC0  F005         	goto	i1u18_21
  2770   000B7C  EFC2  F005         	goto	i1u18_20
  2771   000B80                     i1u18_21:
  2772   000B80  EFC3  F005         	goto	i1l1385
  2773   000B84                     i1u18_20:
  2774   000B84  802F               	bsf	my_pwm_isr@tmp2^0,0,c
  2775   000B86                     i1l1385:
  2776                           
  2777                           ;main.c: 154:     if (pwm_setting[9] > pwm_cnt) tmp2 |= (1<<1);
  2778   000B86  5029               	movf	my_pwm_isr@pwm_cnt^0,w,c
  2779   000B88  6E2C               	movwf	??_my_pwm_isr^0,c
  2780   000B8A  6A2D               	clrf	(??_my_pwm_isr+1)^0,c
  2781   000B8C  5013               	movf	(_pwm_setting+18)^0,w,c	;volatile
  2782   000B8E  5C2C               	subwf	??_my_pwm_isr^0,w,c
  2783   000B90  5014               	movf	(_pwm_setting+19)^0,w,c	;volatile
  2784   000B92  582D               	subwfb	(??_my_pwm_isr+1)^0,w,c
  2785   000B94  B0D8               	btfsc	status,0,c
  2786   000B96  EFCF  F005         	goto	i1u19_21
  2787   000B9A  EFD1  F005         	goto	i1u19_20
  2788   000B9E                     i1u19_21:
  2789   000B9E  EFD2  F005         	goto	i1l1389
  2790   000BA2                     i1u19_20:
  2791   000BA2  822F               	bsf	my_pwm_isr@tmp2^0,1,c
  2792   000BA4                     i1l1389:
  2793                           
  2794                           ;main.c: 155:     if (pwm_setting[10] > pwm_cnt) tmp2 |= (1<<2);
  2795   000BA4  5029               	movf	my_pwm_isr@pwm_cnt^0,w,c
  2796   000BA6  6E2C               	movwf	??_my_pwm_isr^0,c
  2797   000BA8  6A2D               	clrf	(??_my_pwm_isr+1)^0,c
  2798   000BAA  5015               	movf	(_pwm_setting+20)^0,w,c	;volatile
  2799   000BAC  5C2C               	subwf	??_my_pwm_isr^0,w,c
  2800   000BAE  5016               	movf	(_pwm_setting+21)^0,w,c	;volatile
  2801   000BB0  582D               	subwfb	(??_my_pwm_isr+1)^0,w,c
  2802   000BB2  B0D8               	btfsc	status,0,c
  2803   000BB4  EFDE  F005         	goto	i1u20_21
  2804   000BB8  EFE0  F005         	goto	i1u20_20
  2805   000BBC                     i1u20_21:
  2806   000BBC  EFE1  F005         	goto	i1l1393
  2807   000BC0                     i1u20_20:
  2808   000BC0  842F               	bsf	my_pwm_isr@tmp2^0,2,c
  2809   000BC2                     i1l1393:
  2810                           
  2811                           ;main.c: 156:     if (pwm_setting[11] > pwm_cnt) tmp2 |= (1<<3);
  2812   000BC2  5029               	movf	my_pwm_isr@pwm_cnt^0,w,c
  2813   000BC4  6E2C               	movwf	??_my_pwm_isr^0,c
  2814   000BC6  6A2D               	clrf	(??_my_pwm_isr+1)^0,c
  2815   000BC8  5017               	movf	(_pwm_setting+22)^0,w,c	;volatile
  2816   000BCA  5C2C               	subwf	??_my_pwm_isr^0,w,c
  2817   000BCC  5018               	movf	(_pwm_setting+23)^0,w,c	;volatile
  2818   000BCE  582D               	subwfb	(??_my_pwm_isr+1)^0,w,c
  2819   000BD0  B0D8               	btfsc	status,0,c
  2820   000BD2  EFED  F005         	goto	i1u21_21
  2821   000BD6  EFEF  F005         	goto	i1u21_20
  2822   000BDA                     i1u21_21:
  2823   000BDA  EFF0  F005         	goto	i1l1397
  2824   000BDE                     i1u21_20:
  2825   000BDE  862F               	bsf	my_pwm_isr@tmp2^0,3,c
  2826   000BE0                     i1l1397:
  2827                           
  2828                           ;main.c: 157:     if (pwm_setting[12] > pwm_cnt) tmp2 |= (1<<4);
  2829   000BE0  5029               	movf	my_pwm_isr@pwm_cnt^0,w,c
  2830   000BE2  6E2C               	movwf	??_my_pwm_isr^0,c
  2831   000BE4  6A2D               	clrf	(??_my_pwm_isr+1)^0,c
  2832   000BE6  5019               	movf	(_pwm_setting+24)^0,w,c	;volatile
  2833   000BE8  5C2C               	subwf	??_my_pwm_isr^0,w,c
  2834   000BEA  501A               	movf	(_pwm_setting+25)^0,w,c	;volatile
  2835   000BEC  582D               	subwfb	(??_my_pwm_isr+1)^0,w,c
  2836   000BEE  B0D8               	btfsc	status,0,c
  2837   000BF0  EFFC  F005         	goto	i1u22_21
  2838   000BF4  EFFE  F005         	goto	i1u22_20
  2839   000BF8                     i1u22_21:
  2840   000BF8  EFFF  F005         	goto	i1l1401
  2841   000BFC                     i1u22_20:
  2842   000BFC  882F               	bsf	my_pwm_isr@tmp2^0,4,c
  2843   000BFE                     i1l1401:
  2844                           
  2845                           ;main.c: 158:     if (pwm_setting[13] > pwm_cnt) tmp2 |= (1<<5);
  2846   000BFE  5029               	movf	my_pwm_isr@pwm_cnt^0,w,c
  2847   000C00  6E2C               	movwf	??_my_pwm_isr^0,c
  2848   000C02  6A2D               	clrf	(??_my_pwm_isr+1)^0,c
  2849   000C04  501B               	movf	(_pwm_setting+26)^0,w,c	;volatile
  2850   000C06  5C2C               	subwf	??_my_pwm_isr^0,w,c
  2851   000C08  501C               	movf	(_pwm_setting+27)^0,w,c	;volatile
  2852   000C0A  582D               	subwfb	(??_my_pwm_isr+1)^0,w,c
  2853   000C0C  B0D8               	btfsc	status,0,c
  2854   000C0E  EF0B  F006         	goto	i1u23_21
  2855   000C12  EF0D  F006         	goto	i1u23_20
  2856   000C16                     i1u23_21:
  2857   000C16  EF0E  F006         	goto	i1l1405
  2858   000C1A                     i1u23_20:
  2859   000C1A  8A2F               	bsf	my_pwm_isr@tmp2^0,5,c
  2860   000C1C                     i1l1405:
  2861                           
  2862                           ;main.c: 159:     if (pwm_setting[14] > pwm_cnt) tmp2 |= (1<<6);
  2863   000C1C  5029               	movf	my_pwm_isr@pwm_cnt^0,w,c
  2864   000C1E  6E2C               	movwf	??_my_pwm_isr^0,c
  2865   000C20  6A2D               	clrf	(??_my_pwm_isr+1)^0,c
  2866   000C22  501D               	movf	(_pwm_setting+28)^0,w,c	;volatile
  2867   000C24  5C2C               	subwf	??_my_pwm_isr^0,w,c
  2868   000C26  501E               	movf	(_pwm_setting+29)^0,w,c	;volatile
  2869   000C28  582D               	subwfb	(??_my_pwm_isr+1)^0,w,c
  2870   000C2A  B0D8               	btfsc	status,0,c
  2871   000C2C  EF1A  F006         	goto	i1u24_21
  2872   000C30  EF1C  F006         	goto	i1u24_20
  2873   000C34                     i1u24_21:
  2874   000C34  EF1D  F006         	goto	i1l1409
  2875   000C38                     i1u24_20:
  2876   000C38  8C2F               	bsf	my_pwm_isr@tmp2^0,6,c
  2877   000C3A                     i1l1409:
  2878                           
  2879                           ;main.c: 160:     if (pwm_setting[15] > pwm_cnt) tmp2 |= (1<<7);
  2880   000C3A  5029               	movf	my_pwm_isr@pwm_cnt^0,w,c
  2881   000C3C  6E2C               	movwf	??_my_pwm_isr^0,c
  2882   000C3E  6A2D               	clrf	(??_my_pwm_isr+1)^0,c
  2883   000C40  501F               	movf	(_pwm_setting+30)^0,w,c	;volatile
  2884   000C42  5C2C               	subwf	??_my_pwm_isr^0,w,c
  2885   000C44  5020               	movf	(_pwm_setting+31)^0,w,c	;volatile
  2886   000C46  582D               	subwfb	(??_my_pwm_isr+1)^0,w,c
  2887   000C48  B0D8               	btfsc	status,0,c
  2888   000C4A  EF29  F006         	goto	i1u25_21
  2889   000C4E  EF2B  F006         	goto	i1u25_20
  2890   000C52                     i1u25_21:
  2891   000C52  EF2C  F006         	goto	i1l1413
  2892   000C56                     i1u25_20:
  2893   000C56  8E2F               	bsf	my_pwm_isr@tmp2^0,7,c
  2894   000C58                     i1l1413:
  2895                           
  2896                           ;main.c: 162:     LATA = tmp1;
  2897   000C58  0060  F0BB  FFBA   	movff	my_pwm_isr@tmp1,16314	;volatile
  2898   000C5E                     
  2899                           ;main.c: 163:     LATC = tmp2;
  2900   000C5E  0060  F0BF  FFBC   	movff	my_pwm_isr@tmp2,16316	;volatile
  2901   000C64                     
  2902                           ;main.c: 165:     if (pwm_cnt==254)
  2903   000C64  0EFE               	movlw	254
  2904   000C66  1829               	xorwf	my_pwm_isr@pwm_cnt^0,w,c
  2905   000C68  A4D8               	btfss	status,2,c
  2906   000C6A  EF39  F006         	goto	i1u26_21
  2907   000C6E  EF3B  F006         	goto	i1u26_20
  2908   000C72                     i1u26_21:
  2909   000C72  EF3F  F006         	goto	i1l1421
  2910   000C76                     i1u26_20:
  2911   000C76                     
  2912                           ;main.c: 166:         pwm_cnt=0;
  2913   000C76  0E00               	movlw	0
  2914   000C78  6E29               	movwf	my_pwm_isr@pwm_cnt^0,c
  2915   000C7A  EF40  F006         	goto	i1l494
  2916   000C7E                     i1l1421:
  2917                           
  2918                           ;main.c: 168:         pwm_cnt++;
  2919   000C7E  2A29               	incf	my_pwm_isr@pwm_cnt^0,f,c
  2920   000C80                     i1l494:
  2921   000C80  0012               	return		;funcret
  2922   000C82                     __end_of_my_pwm_isr:
  2923                           	callstack 0
  2924                           
  2925 ;; *************** function _TMR0_ISR *****************
  2926 ;; Defined at:
  2927 ;;		line 121 in file "mcc_generated_files/tmr0.c"
  2928 ;; Parameters:    Size  Location     Type
  2929 ;;		None
  2930 ;; Auto vars:     Size  Location     Type
  2931 ;;		None
  2932 ;; Return value:  Size  Location     Type
  2933 ;;                  1    wreg      void 
  2934 ;; Registers used:
  2935 ;;		wreg, status,2, status,0, pcl, pclath, pclatu, tosl, cstack
  2936 ;; Tracked objects:
  2937 ;;		On entry : 0/0
  2938 ;;		On exit  : 0/0
  2939 ;;		Unchanged: 0/0
  2940 ;; Data sizes:     COMRAM   BANK0   BANK1   BANK2   BANK3   BANK4   BANK5   BANK6   BANK7
  2941 ;;      Params:         0       0       0       0       0       0       0       0       0
  2942 ;;      Locals:         0       0       0       0       0       0       0       0       0
  2943 ;;      Temps:          0       0       0       0       0       0       0       0       0
  2944 ;;      Totals:         0       0       0       0       0       0       0       0       0
  2945 ;;Total ram usage:        0 bytes
  2946 ;; Hardware stack levels used: 1
  2947 ;; Hardware stack levels required when called: 5
  2948 ;; This function calls:
  2949 ;;		NULL
  2950 ;;		_TMR0_DefaultInterruptHandler
  2951 ;;		_my_antiflicker_isr
  2952 ;; This function is called by:
  2953 ;;		_INTERRUPT_InterruptManagerLow
  2954 ;; This function uses a non-reentrant model
  2955 ;;
  2956                           
  2957                           	psect	text26
  2958   00106C                     __ptext26:
  2959                           	callstack 0
  2960   00106C                     _TMR0_ISR:
  2961                           	callstack 21
  2962   00106C                     
  2963                           ;mcc_generated_files/tmr0.c: 124:     PIR3bits.TMR0IF = 0;
  2964   00106C  0139               	movlb	57	; () banked
  2965   00106E  9FA3               	bcf	163,7,b	;volatile
  2966   001070                     
  2967                           ; BSR set to: 57
  2968                           ;mcc_generated_files/tmr0.c: 125:     if(TMR0_InterruptHandler)
  2969   001070  504F               	movf	_TMR0_InterruptHandler^0,w,c
  2970   001072  1050               	iorwf	(_TMR0_InterruptHandler+1)^0,w,c
  2971   001074  B4D8               	btfsc	status,2,c
  2972   001076  EF3F  F008         	goto	i1u28_21
  2973   00107A  EF41  F008         	goto	i1u28_20
  2974   00107E                     i1u28_21:
  2975   00107E  EF4E  F008         	goto	i1l155
  2976   001082                     i1u28_20:
  2977   001082                     
  2978                           ; BSR set to: 57
  2979                           ;mcc_generated_files/tmr0.c: 126:     {;mcc_generated_files/tmr0.c: 127:         TMR0_In
      +                          terruptHandler();
  2980   001082  D802               	call	i1u29_28
  2981   001084  EF4E  F008         	goto	i1u29_29
  2982   001088                     i1u29_28:
  2983   001088  0005               	push	
  2984   00108A  6EFA               	movwf	pclath,c
  2985   00108C  504F               	movf	_TMR0_InterruptHandler^0,w,c
  2986   00108E  6EFD               	movwf	tosl,c
  2987   001090  5050               	movf	(_TMR0_InterruptHandler+1)^0,w,c
  2988   001092  6EFE               	movwf	tosh,c
  2989   001094  50F8               	movf	tblptru,w,c
  2990   001096  6EFF               	movwf	tosu,c
  2991   001098  50FA               	movf	pclath,w,c
  2992   00109A  0012               	return		;indir
  2993   00109C                     i1u29_29:
  2994   00109C                     i1l155:
  2995   00109C  0012               	return		;funcret
  2996   00109E                     __end_of_TMR0_ISR:
  2997                           	callstack 0
  2998                           
  2999 ;; *************** function _TMR0_DefaultInterruptHandler *****************
  3000 ;; Defined at:
  3001 ;;		line 138 in file "mcc_generated_files/tmr0.c"
  3002 ;; Parameters:    Size  Location     Type
  3003 ;;		None
  3004 ;; Auto vars:     Size  Location     Type
  3005 ;;		None
  3006 ;; Return value:  Size  Location     Type
  3007 ;;                  1    wreg      void 
  3008 ;; Registers used:
  3009 ;;		None
  3010 ;; Tracked objects:
  3011 ;;		On entry : 0/0
  3012 ;;		On exit  : 0/0
  3013 ;;		Unchanged: 0/0
  3014 ;; Data sizes:     COMRAM   BANK0   BANK1   BANK2   BANK3   BANK4   BANK5   BANK6   BANK7
  3015 ;;      Params:         0       0       0       0       0       0       0       0       0
  3016 ;;      Locals:         0       0       0       0       0       0       0       0       0
  3017 ;;      Temps:          0       0       0       0       0       0       0       0       0
  3018 ;;      Totals:         0       0       0       0       0       0       0       0       0
  3019 ;;Total ram usage:        0 bytes
  3020 ;; Hardware stack levels used: 1
  3021 ;; Hardware stack levels required when called: 4
  3022 ;; This function calls:
  3023 ;;		Nothing
  3024 ;; This function is called by:
  3025 ;;		_TMR0_Initialize
  3026 ;;		_TMR0_ISR
  3027 ;; This function uses a non-reentrant model
  3028 ;;
  3029                           
  3030                           	psect	text27
  3031   00126A                     __ptext27:
  3032                           	callstack 0
  3033   00126A                     _TMR0_DefaultInterruptHandler:
  3034                           	callstack 21
  3035   00126A  0012               	return		;funcret
  3036   00126C                     __end_of_TMR0_DefaultInterruptHandler:
  3037                           	callstack 0
  3038                           
  3039 ;; *************** function _my_antiflicker_isr *****************
  3040 ;; Defined at:
  3041 ;;		line 88 in file "main.c"
  3042 ;; Parameters:    Size  Location     Type
  3043 ;;		None
  3044 ;; Auto vars:     Size  Location     Type
  3045 ;;		None
  3046 ;; Return value:  Size  Location     Type
  3047 ;;                  1    wreg      void 
  3048 ;; Registers used:
  3049 ;;		wreg, status,2, status,0
  3050 ;; Tracked objects:
  3051 ;;		On entry : 0/0
  3052 ;;		On exit  : 0/0
  3053 ;;		Unchanged: 0/0
  3054 ;; Data sizes:     COMRAM   BANK0   BANK1   BANK2   BANK3   BANK4   BANK5   BANK6   BANK7
  3055 ;;      Params:         0       0       0       0       0       0       0       0       0
  3056 ;;      Locals:         0       0       0       0       0       0       0       0       0
  3057 ;;      Temps:          0       0       0       0       0       0       0       0       0
  3058 ;;      Totals:         0       0       0       0       0       0       0       0       0
  3059 ;;Total ram usage:        0 bytes
  3060 ;; Hardware stack levels used: 1
  3061 ;; Hardware stack levels required when called: 4
  3062 ;; This function calls:
  3063 ;;		Nothing
  3064 ;; This function is called by:
  3065 ;;		_main
  3066 ;;		_TMR0_ISR
  3067 ;; This function uses a non-reentrant model
  3068 ;;
  3069                           
  3070                           	psect	text28
  3071   000F8C                     __ptext28:
  3072                           	callstack 0
  3073   000F8C                     _my_antiflicker_isr:
  3074                           	callstack 21
  3075   000F8C                     
  3076                           ;main.c: 91:     if ( clocks_counter == old_clocks_counter ) {
  3077   000F8C  5021               	movf	_old_clocks_counter^0,w,c	;volatile
  3078   000F8E  1823               	xorwf	_clocks_counter^0,w,c	;volatile
  3079   000F90  E107               	bnz	i1u4_21
  3080   000F92  5022               	movf	(_old_clocks_counter+1)^0,w,c	;volatile
  3081   000F94  1824               	xorwf	(_clocks_counter+1)^0,w,c	;volatile
  3082   000F96  A4D8               	btfss	status,2,c
  3083   000F98  EFD0  F007         	goto	i1u4_21
  3084   000F9C  EFD2  F007         	goto	i1u4_20
  3085   000FA0                     i1u4_21:
  3086   000FA0  EFE1  F007         	goto	i1l458
  3087   000FA4                     i1u4_20:
  3088   000FA4                     
  3089                           ;main.c: 93:         lampstatus = lampdata;
  3090   000FA4  C027  F025         	movff	_lampdata,_lampstatus	;volatile
  3091   000FA8  C028  F026         	movff	_lampdata+1,_lampstatus+1	;volatile
  3092   000FAC                     
  3093                           ;main.c: 95:         clocks_counter = old_clocks_counter = 0;
  3094   000FAC  0E00               	movlw	0
  3095   000FAE  6E22               	movwf	(_old_clocks_counter+1)^0,c	;volatile
  3096   000FB0  0E00               	movlw	0
  3097   000FB2  6E21               	movwf	_old_clocks_counter^0,c	;volatile
  3098   000FB4  C021  F023         	movff	_old_clocks_counter,_clocks_counter	;volatile
  3099   000FB8  C022  F024         	movff	_old_clocks_counter+1,_clocks_counter+1	;volatile
  3100   000FBC  94BB               	bcf	187,2,c	;volatile
  3101   000FBE  EFE5  F007         	goto	i1l462
  3102   000FC2                     i1l458:
  3103                           
  3104                           ;main.c: 100:     {;main.c: 101:        old_clocks_counter = clocks_counter;
  3105   000FC2  C023  F021         	movff	_clocks_counter,_old_clocks_counter	;volatile
  3106   000FC6  C024  F022         	movff	_clocks_counter+1,_old_clocks_counter+1	;volatile
  3107   000FCA                     i1l462:
  3108   000FCA  0012               	return		;funcret
  3109   000FCC                     __end_of_my_antiflicker_isr:
  3110                           	callstack 0
  3111                           
  3112 ;; *************** function _INTERRUPT_InterruptManagerHigh *****************
  3113 ;; Defined at:
  3114 ;;		line 74 in file "mcc_generated_files/interrupt_manager.c"
  3115 ;; Parameters:    Size  Location     Type
  3116 ;;		None
  3117 ;; Auto vars:     Size  Location     Type
  3118 ;;		None
  3119 ;; Return value:  Size  Location     Type
  3120 ;;                  1    wreg      void 
  3121 ;; Registers used:
  3122 ;;		wreg, status,2, status,0, pcl, pclath, pclatu, tosl, cstack
  3123 ;; Tracked objects:
  3124 ;;		On entry : 0/0
  3125 ;;		On exit  : 0/0
  3126 ;;		Unchanged: 0/0
  3127 ;; Data sizes:     COMRAM   BANK0   BANK1   BANK2   BANK3   BANK4   BANK5   BANK6   BANK7
  3128 ;;      Params:         0       0       0       0       0       0       0       0       0
  3129 ;;      Locals:         0       0       0       0       0       0       0       0       0
  3130 ;;      Temps:          2       0       0       0       0       0       0       0       0
  3131 ;;      Totals:         2       0       0       0       0       0       0       0       0
  3132 ;;Total ram usage:        2 bytes
  3133 ;; Hardware stack levels used: 1
  3134 ;; Hardware stack levels required when called: 3
  3135 ;; This function calls:
  3136 ;;		_INT1_ISR
  3137 ;; This function is called by:
  3138 ;;		Interrupt level 2
  3139 ;; This function uses a non-reentrant model
  3140 ;;
  3141                           
  3142                           	psect	text29
  3143   000FCC                     __ptext29:
  3144                           	callstack 0
  3145   000FCC                     _INTERRUPT_InterruptManagerHigh:
  3146                           	callstack 21
  3147                           
  3148                           ;incstack = 0
  3149   000FCC  006F FFE8  F02A    	movff	pclath,??_INTERRUPT_InterruptManagerHigh
  3150   000FD2  006F FFEC  F02B    	movff	pclatu,??_INTERRUPT_InterruptManagerHigh+1
  3151   000FD8                     
  3152                           ;mcc_generated_files/interrupt_manager.c: 77:     if(PIE5bits.INT1IE == 1 && PIR5bits.IN
      +                          T1IF == 1)
  3153   000FD8  0139               	movlb	57	; () banked
  3154   000FDA  A195               	btfss	149,0,b	;volatile
  3155   000FDC  EFF2  F007         	goto	i2u37_41
  3156   000FE0  EFF4  F007         	goto	i2u37_40
  3157   000FE4                     i2u37_41:
  3158   000FE4  EFFD  F007         	goto	i2l205
  3159   000FE8                     i2u37_40:
  3160   000FE8                     
  3161                           ; BSR set to: 57
  3162   000FE8  A1A5               	btfss	165,0,b	;volatile
  3163   000FEA  EFF9  F007         	goto	i2u38_41
  3164   000FEE  EFFB  F007         	goto	i2u38_40
  3165   000FF2                     i2u38_41:
  3166   000FF2  EFFD  F007         	goto	i2l205
  3167   000FF6                     i2u38_40:
  3168   000FF6                     
  3169                           ; BSR set to: 57
  3170                           ;mcc_generated_files/interrupt_manager.c: 78:     {;mcc_generated_files/interrupt_manage
      +                          r.c: 79:         INT1_ISR();
  3171   000FF6  EC2A  F009         	call	_INT1_ISR	;wreg free
  3172   000FFA                     i2l205:
  3173   000FFA  0060  F0AF  FFFB   	movff	??_INTERRUPT_InterruptManagerHigh+1,pclatu
  3174   001000  0060  F0AB  FFFA   	movff	??_INTERRUPT_InterruptManagerHigh,pclath
  3175   001006  0011               	retfie		f
  3176   001008                     __end_of_INTERRUPT_InterruptManagerHigh:
  3177                           	callstack 0
  3178                           
  3179 ;; *************** function _INT1_ISR *****************
  3180 ;; Defined at:
  3181 ;;		line 32 in file "mcc_generated_files/ext_int.c"
  3182 ;; Parameters:    Size  Location     Type
  3183 ;;		None
  3184 ;; Auto vars:     Size  Location     Type
  3185 ;;		None
  3186 ;; Return value:  Size  Location     Type
  3187 ;;                  1    wreg      void 
  3188 ;; Registers used:
  3189 ;;		wreg, status,2, status,0, pcl, pclath, pclatu, tosl, cstack
  3190 ;; Tracked objects:
  3191 ;;		On entry : 0/0
  3192 ;;		On exit  : 0/0
  3193 ;;		Unchanged: 0/0
  3194 ;; Data sizes:     COMRAM   BANK0   BANK1   BANK2   BANK3   BANK4   BANK5   BANK6   BANK7
  3195 ;;      Params:         0       0       0       0       0       0       0       0       0
  3196 ;;      Locals:         0       0       0       0       0       0       0       0       0
  3197 ;;      Temps:          0       0       0       0       0       0       0       0       0
  3198 ;;      Totals:         0       0       0       0       0       0       0       0       0
  3199 ;;Total ram usage:        0 bytes
  3200 ;; Hardware stack levels used: 1
  3201 ;; Hardware stack levels required when called: 2
  3202 ;; This function calls:
  3203 ;;		_INT1_CallBack
  3204 ;; This function is called by:
  3205 ;;		_INTERRUPT_InterruptManagerHigh
  3206 ;; This function uses a non-reentrant model
  3207 ;;
  3208                           
  3209                           	psect	text30
  3210   001254                     __ptext30:
  3211                           	callstack 0
  3212   001254                     _INT1_ISR:
  3213                           	callstack 21
  3214   001254                     
  3215                           ;mcc_generated_files/ext_int.c: 34:     (PIR5bits.INT1IF = 0);
  3216   001254  0139               	movlb	57	; () banked
  3217   001256  91A5               	bcf	165,0,b	;volatile
  3218   001258                     
  3219                           ; BSR set to: 57
  3220                           ;mcc_generated_files/ext_int.c: 37:     INT1_CallBack();
  3221   001258  EC66  F008         	call	_INT1_CallBack	;wreg free
  3222   00125C  0012               	return		;funcret
  3223   00125E                     __end_of_INT1_ISR:
  3224                           	callstack 0
  3225                           
  3226 ;; *************** function _INT1_CallBack *****************
  3227 ;; Defined at:
  3228 ;;		line 41 in file "mcc_generated_files/ext_int.c"
  3229 ;; Parameters:    Size  Location     Type
  3230 ;;		None
  3231 ;; Auto vars:     Size  Location     Type
  3232 ;;		None
  3233 ;; Return value:  Size  Location     Type
  3234 ;;                  1    wreg      void 
  3235 ;; Registers used:
  3236 ;;		wreg, status,2, status,0, pcl, pclath, pclatu, tosl, cstack
  3237 ;; Tracked objects:
  3238 ;;		On entry : 0/0
  3239 ;;		On exit  : 0/0
  3240 ;;		Unchanged: 0/0
  3241 ;; Data sizes:     COMRAM   BANK0   BANK1   BANK2   BANK3   BANK4   BANK5   BANK6   BANK7
  3242 ;;      Params:         0       0       0       0       0       0       0       0       0
  3243 ;;      Locals:         0       0       0       0       0       0       0       0       0
  3244 ;;      Temps:          0       0       0       0       0       0       0       0       0
  3245 ;;      Totals:         0       0       0       0       0       0       0       0       0
  3246 ;;Total ram usage:        0 bytes
  3247 ;; Hardware stack levels used: 1
  3248 ;; Hardware stack levels required when called: 1
  3249 ;; This function calls:
  3250 ;;		NULL
  3251 ;;		_INT1_DefaultInterruptHandler
  3252 ;;		_my_Int1_Isr
  3253 ;; This function is called by:
  3254 ;;		_INT1_ISR
  3255 ;; This function uses a non-reentrant model
  3256 ;;
  3257                           
  3258                           	psect	text31
  3259   0010CC                     __ptext31:
  3260                           	callstack 0
  3261   0010CC                     _INT1_CallBack:
  3262                           	callstack 21
  3263   0010CC                     
  3264                           ;mcc_generated_files/ext_int.c: 44:     if(INT1_InterruptHandler)
  3265   0010CC  504D               	movf	_INT1_InterruptHandler^0,w,c
  3266   0010CE  104E               	iorwf	(_INT1_InterruptHandler+1)^0,w,c
  3267   0010D0  B4D8               	btfsc	status,2,c
  3268   0010D2  EF6D  F008         	goto	i2u2_41
  3269   0010D6  EF6F  F008         	goto	i2u2_40
  3270   0010DA                     i2u2_41:
  3271   0010DA  EF7C  F008         	goto	i2l233
  3272   0010DE                     i2u2_40:
  3273   0010DE                     
  3274                           ;mcc_generated_files/ext_int.c: 45:     {;mcc_generated_files/ext_int.c: 46:         INT
      +                          1_InterruptHandler();
  3275   0010DE  D802               	call	i2u3_48
  3276   0010E0  EF7C  F008         	goto	i2u3_49
  3277   0010E4                     i2u3_48:
  3278   0010E4  0005               	push	
  3279   0010E6  6EFA               	movwf	pclath,c
  3280   0010E8  504D               	movf	_INT1_InterruptHandler^0,w,c
  3281   0010EA  6EFD               	movwf	tosl,c
  3282   0010EC  504E               	movf	(_INT1_InterruptHandler+1)^0,w,c
  3283   0010EE  6EFE               	movwf	tosh,c
  3284   0010F0  50F8               	movf	tblptru,w,c
  3285   0010F2  6EFF               	movwf	tosu,c
  3286   0010F4  50FA               	movf	pclath,w,c
  3287   0010F6  0012               	return		;indir
  3288   0010F8                     i2u3_49:
  3289   0010F8                     i2l233:
  3290   0010F8  0012               	return		;funcret
  3291   0010FA                     __end_of_INT1_CallBack:
  3292                           	callstack 0
  3293                           
  3294 ;; *************** function _INT1_DefaultInterruptHandler *****************
  3295 ;; Defined at:
  3296 ;;		line 54 in file "mcc_generated_files/ext_int.c"
  3297 ;; Parameters:    Size  Location     Type
  3298 ;;		None
  3299 ;; Auto vars:     Size  Location     Type
  3300 ;;		None
  3301 ;; Return value:  Size  Location     Type
  3302 ;;                  1    wreg      void 
  3303 ;; Registers used:
  3304 ;;		None
  3305 ;; Tracked objects:
  3306 ;;		On entry : 0/0
  3307 ;;		On exit  : 0/0
  3308 ;;		Unchanged: 0/0
  3309 ;; Data sizes:     COMRAM   BANK0   BANK1   BANK2   BANK3   BANK4   BANK5   BANK6   BANK7
  3310 ;;      Params:         0       0       0       0       0       0       0       0       0
  3311 ;;      Locals:         0       0       0       0       0       0       0       0       0
  3312 ;;      Temps:          0       0       0       0       0       0       0       0       0
  3313 ;;      Totals:         0       0       0       0       0       0       0       0       0
  3314 ;;Total ram usage:        0 bytes
  3315 ;; Hardware stack levels used: 1
  3316 ;; This function calls:
  3317 ;;		Nothing
  3318 ;; This function is called by:
  3319 ;;		_EXT_INT_Initialize
  3320 ;;		_INT1_CallBack
  3321 ;; This function uses a non-reentrant model
  3322 ;;
  3323                           
  3324                           	psect	text32
  3325   00126C                     __ptext32:
  3326                           	callstack 0
  3327   00126C                     _INT1_DefaultInterruptHandler:
  3328                           	callstack 21
  3329   00126C  0012               	return		;funcret
  3330   00126E                     __end_of_INT1_DefaultInterruptHandler:
  3331                           	callstack 0
  3332                           
  3333 ;; *************** function _my_Int1_Isr *****************
  3334 ;; Defined at:
  3335 ;;		line 65 in file "main.c"
  3336 ;; Parameters:    Size  Location     Type
  3337 ;;		None
  3338 ;; Auto vars:     Size  Location     Type
  3339 ;;		None
  3340 ;; Return value:  Size  Location     Type
  3341 ;;                  1    wreg      void 
  3342 ;; Registers used:
  3343 ;;		wreg, status,2, status,0
  3344 ;; Tracked objects:
  3345 ;;		On entry : 0/0
  3346 ;;		On exit  : 0/0
  3347 ;;		Unchanged: 0/0
  3348 ;; Data sizes:     COMRAM   BANK0   BANK1   BANK2   BANK3   BANK4   BANK5   BANK6   BANK7
  3349 ;;      Params:         0       0       0       0       0       0       0       0       0
  3350 ;;      Locals:         0       0       0       0       0       0       0       0       0
  3351 ;;      Temps:          0       0       0       0       0       0       0       0       0
  3352 ;;      Totals:         0       0       0       0       0       0       0       0       0
  3353 ;;Total ram usage:        0 bytes
  3354 ;; Hardware stack levels used: 1
  3355 ;; This function calls:
  3356 ;;		Nothing
  3357 ;; This function is called by:
  3358 ;;		_main
  3359 ;;		_INT1_CallBack
  3360 ;; This function uses a non-reentrant model
  3361 ;;
  3362                           
  3363                           	psect	text33
  3364   001152                     __ptext33:
  3365                           	callstack 0
  3366   001152                     _my_Int1_Isr:
  3367                           	callstack 21
  3368   001152                     
  3369                           ;main.c: 68:   lampdata = ( lampdata << 1);
  3370   001152  90D8               	bcf	status,0,c
  3371   001154  3427               	rlcf	_lampdata^0,w,c	;volatile
  3372   001156  6E27               	movwf	_lampdata^0,c	;volatile
  3373   001158  3428               	rlcf	(_lampdata+1)^0,w,c	;volatile
  3374   00115A  6E28               	movwf	(_lampdata+1)^0,c	;volatile
  3375   00115C                     
  3376                           ;main.c: 71:   if (PORTBbits.RB0 == 0)
  3377   00115C  B0CB               	btfsc	203,0,c	;volatile
  3378   00115E  EFB3  F008         	goto	i2u1_41
  3379   001162  EFB5  F008         	goto	i2u1_40
  3380   001166                     i2u1_41:
  3381   001166  EFB8  F008         	goto	i2l1251
  3382   00116A                     i2u1_40:
  3383   00116A                     
  3384                           ;main.c: 72:       lampdata &= (~(1u << 0));
  3385   00116A  9027               	bcf	_lampdata^0,0,c	;volatile
  3386   00116C  EFB9  F008         	goto	i2l452
  3387   001170                     i2l1251:
  3388                           
  3389                           ;main.c: 74:       lampdata |= (1u << 0);
  3390   001170  8027               	bsf	_lampdata^0,0,c	;volatile
  3391   001172                     i2l452:
  3392                           
  3393                           ;main.c: 77:   clocks_counter++;
  3394   001172  4A23               	infsnz	_clocks_counter^0,f,c	;volatile
  3395   001174  2A24               	incf	(_clocks_counter+1)^0,f,c	;volatile
  3396   001176  84BB               	bsf	187,2,c	;volatile
  3397   001178  0012               	return		;funcret
  3398   00117A                     __end_of_my_Int1_Isr:
  3399                           	callstack 0
  3400                           
  3401                           ;
  3402                           ; H/W Interrupt Vector Table @ 0x8
  3403                           ;
  3404                           
  3405                           	psect	ivt0x8
  3406   000008                     __pivt0x8:
  3407                           	callstack 0
  3408   000008                     ivt0x8_base:
  3409                           	callstack 0
  3410                           
  3411                           ; high-priority vector
  3412   000008  EFE6  F007         	goto	_INTERRUPT_InterruptManagerHigh
  3413   000018                     	org	16
  3414                           
  3415                           ; low-priority vector
  3416   000018  EFAC  F006         	goto	_INTERRUPT_InterruptManagerLow
  3417                           
  3418                           	psect	rparam
  3419   000000                     
  3420                           	psect	idloc
  3421                           
  3422                           ;Config register IDLOC0 @ 0x200000
  3423                           ;	unspecified, using default values
  3424   200000                     	org	2097152
  3425   200000  0FFF               	dw	4095
  3426                           
  3427                           ;Config register IDLOC1 @ 0x200002
  3428                           ;	unspecified, using default values
  3429   200002                     	org	2097154
  3430   200002  0FFF               	dw	4095
  3431                           
  3432                           ;Config register IDLOC2 @ 0x200004
  3433                           ;	unspecified, using default values
  3434   200004                     	org	2097156
  3435   200004  0FFF               	dw	4095
  3436                           
  3437                           ;Config register IDLOC3 @ 0x200006
  3438                           ;	unspecified, using default values
  3439   200006                     	org	2097158
  3440   200006  0FFF               	dw	4095
  3441                           
  3442                           ;Config register IDLOC4 @ 0x200008
  3443                           ;	unspecified, using default values
  3444   200008                     	org	2097160
  3445   200008  0FFF               	dw	4095
  3446                           
  3447                           ;Config register IDLOC5 @ 0x20000A
  3448                           ;	unspecified, using default values
  3449   20000A                     	org	2097162
  3450   20000A  0FFF               	dw	4095
  3451                           
  3452                           ;Config register IDLOC6 @ 0x20000C
  3453                           ;	unspecified, using default values
  3454   20000C                     	org	2097164
  3455   20000C  0FFF               	dw	4095
  3456                           
  3457                           ;Config register IDLOC7 @ 0x20000E
  3458                           ;	unspecified, using default values
  3459   20000E                     	org	2097166
  3460   20000E  0FFF               	dw	4095
  3461                           
  3462                           	psect	config
  3463                           
  3464                           ;Config register CONFIG1L @ 0x300000
  3465                           ;	External Oscillator Selection
  3466                           ;	FEXTOSC = OFF, Oscillator not enabled
  3467                           ;	Reset Oscillator Selection
  3468                           ;	RSTOSC = HFINTOSC_64MHZ, HFINTOSC with HFFRQ = 64 MHz and CDIV = 1:1
  3469   300000                     	org	3145728
  3470   300000  8C                 	db	140
  3471                           
  3472                           ;Config register CONFIG1H @ 0x300001
  3473                           ;	Clock out Enable bit
  3474                           ;	CLKOUTEN = OFF, CLKOUT function is disabled
  3475                           ;	PRLOCKED One-Way Set Enable bit
  3476                           ;	PR1WAY = ON, PRLOCK bit can be cleared and set only once
  3477                           ;	Clock Switch Enable bit
  3478                           ;	CSWEN = ON, Writing to NOSC and NDIV is allowed
  3479                           ;	Fail-Safe Clock Monitor Enable bit
  3480                           ;	FCMEN = ON, Fail-Safe Clock Monitor enabled
  3481   300001                     	org	3145729
  3482   300001  FF                 	db	255
  3483                           
  3484                           ;Config register CONFIG2L @ 0x300002
  3485                           ;	MCLR Enable bit
  3486                           ;	MCLRE = EXTMCLR, If LVP = 0, MCLR pin is MCLR; If LVP = 1, RE3 pin function is MCLR
  3487                           ;	Power-up timer selection bits
  3488                           ;	PWRTS = PWRT_OFF, PWRT is disabled
  3489                           ;	Multi-vector enable bit
  3490                           ;	MVECEN = OFF, Interrupt contoller does not use vector table to prioritze interrupts
  3491                           ;	IVTLOCK bit One-way set enable bit
  3492                           ;	IVT1WAY = ON, IVTLOCK bit can be cleared and set only once
  3493                           ;	Low Power BOR Enable bit
  3494                           ;	LPBOREN = OFF, ULPBOR disabled
  3495                           ;	Brown-out Reset Enable bits
  3496                           ;	BOREN = SBORDIS, Brown-out Reset enabled , SBOREN bit is ignored
  3497   300002                     	org	3145730
  3498   300002  F7                 	db	247
  3499                           
  3500                           ;Config register CONFIG2H @ 0x300003
  3501                           ;	Brown-out Reset Voltage Selection bits
  3502                           ;	BORV = VBOR_2P45, Brown-out Reset Voltage (VBOR) set to 2.45V
  3503                           ;	ZCD Disable bit
  3504                           ;	ZCD = OFF, ZCD disabled. ZCD can be enabled by setting the ZCDSEN bit of ZCDCON
  3505                           ;	PPSLOCK bit One-Way Set Enable bit
  3506                           ;	PPS1WAY = ON, PPSLOCK bit can be cleared and set only once; PPS registers remain locke
      +                          d after one clear/set cycle
  3507                           ;	Stack Full/Underflow Reset Enable bit
  3508                           ;	STVREN = ON, Stack full/underflow will cause Reset
  3509                           ;	Debugger Enable bit
  3510                           ;	DEBUG = OFF, Background debugger disabled
  3511                           ;	Extended Instruction Set Enable bit
  3512                           ;	XINST = OFF, Extended Instruction Set and Indexed Addressing Mode disabled
  3513   300003                     	org	3145731
  3514   300003  FF                 	db	255
  3515                           
  3516                           ;Config register CONFIG3L @ 0x300004
  3517                           ;	WDT Period selection bits
  3518                           ;	WDTCPS = WDTCPS_31, Divider ratio 1:65536; software control of WDTPS
  3519                           ;	WDT operating mode
  3520                           ;	WDTE = OFF, WDT Disabled; SWDTEN is ignored
  3521   300004                     	org	3145732
  3522   300004  9F                 	db	159
  3523                           
  3524                           ;Config register CONFIG3H @ 0x300005
  3525                           ;	WDT Window Select bits
  3526                           ;	WDTCWS = WDTCWS_7, window always open (100%); software control; keyed access not requi
      +                          red
  3527                           ;	WDT input clock selector
  3528                           ;	WDTCCS = SC, Software Control
  3529   300005                     	org	3145733
  3530   300005  FF                 	db	255
  3531                           
  3532                           ;Config register CONFIG4L @ 0x300006
  3533                           ;	Boot Block Size selection bits
  3534                           ;	BBSIZE = BBSIZE_512, Boot Block size is 512 words
  3535                           ;	Boot Block enable bit
  3536                           ;	BBEN = OFF, Boot block disabled
  3537                           ;	Storage Area Flash enable bit
  3538                           ;	SAFEN = OFF, SAF disabled
  3539                           ;	Application Block write protection bit
  3540                           ;	WRTAPP = OFF, Application Block not write protected
  3541   300006                     	org	3145734
  3542   300006  FF                 	db	255
  3543                           
  3544                           ;Config register CONFIG4H @ 0x300007
  3545                           ;	Configuration Register Write Protection bit
  3546                           ;	WRTB = OFF, Configuration registers (300000-30000Bh) not write-protected
  3547                           ;	Boot Block Write Protection bit
  3548                           ;	WRTC = OFF, Boot Block (000000-0007FFh) not write-protected
  3549                           ;	Data EEPROM Write Protection bit
  3550                           ;	WRTD = OFF, Data EEPROM not write-protected
  3551                           ;	SAF Write protection bit
  3552                           ;	WRTSAF = OFF, SAF not Write Protected
  3553                           ;	Low Voltage Programming Enable bit
  3554                           ;	LVP = ON, Low voltage programming enabled. MCLR/VPP pin function is MCLR. MCLRE config
      +                          uration bit is ignored
  3555   300007                     	org	3145735
  3556   300007  FF                 	db	255
  3557                           
  3558                           ;Config register CONFIG5L @ 0x300008
  3559                           ;	PFM and Data EEPROM Code Protection bit
  3560                           ;	CP = OFF, PFM and Data EEPROM code protection disabled
  3561   300008                     	org	3145736
  3562   300008  FF                 	db	255
  3563                           
  3564                           ;Config register CONFIG5H @ 0x300009
  3565                           ;	unspecified, using default values
  3566   300009                     	org	3145737
  3567   300009  FF                 	db	255
  3568                           tosu	equ	0x3FFF
  3569                           tosh	equ	0x3FFE
  3570                           tosl	equ	0x3FFD
  3571                           stkptr	equ	0x3FFC
  3572                           pclatu	equ	0x3FFB
  3573                           pclath	equ	0x3FFA
  3574                           pcl	equ	0x3FF9
  3575                           tblptru	equ	0x3FF8
  3576                           tblptrh	equ	0x3FF7
  3577                           tblptrl	equ	0x3FF6
  3578                           tablat	equ	0x3FF5
  3579                           prodh	equ	0x3FF4
  3580                           prodl	equ	0x3FF3
  3581                           indf0	equ	0x3FEF
  3582                           postinc0	equ	0x3FEE
  3583                           postdec0	equ	0x3FED
  3584                           preinc0	equ	0x3FEC
  3585                           plusw0	equ	0x3FEB
  3586                           fsr0h	equ	0x3FEA
  3587                           fsr0l	equ	0x3FE9
  3588                           wreg	equ	0x3FE8
  3589                           indf1	equ	0x3FE7
  3590                           postinc1	equ	0x3FE6
  3591                           postdec1	equ	0x3FE5
  3592                           preinc1	equ	0x3FE4
  3593                           plusw1	equ	0x3FE3
  3594                           fsr1h	equ	0x3FE2
  3595                           fsr1l	equ	0x3FE1
  3596                           bsr	equ	0x3FE0
  3597                           indf2	equ	0x3FDF
  3598                           postinc2	equ	0x3FDE
  3599                           postdec2	equ	0x3FDD
  3600                           preinc2	equ	0x3FDC
  3601                           plusw2	equ	0x3FDB
  3602                           fsr2h	equ	0x3FDA
  3603                           fsr2l	equ	0x3FD9
  3604                           status	equ	0x3FD8

Data Sizes:
    Strings     4
    Constant    64
    Data        0
    BSS         57
    Persistent  8
    Stack       0

Auto Spaces:
    Space          Size  Autos    Used
    COMRAM           95     31      80
    BANK0           160      0      16
    BANK1           256      0       0
    BANK2           256      0       0
    BANK3           256      0       0
    BANK4           256      0       0
    BANK5           256      0       0
    BANK6           256      0       0
    BANK7           256      0       0

Pointer List with Targets:

    blinkFw@version	PTR unsigned char  size(1) Largest target is 4
		 -> STR_1(CODE[4]), 

    INT1_InterruptHandler	PTR FTN()void  size(2) Largest target is 1
		 -> INT1_DefaultInterruptHandler(), my_Int1_Isr(), NULL(), 

    INT1_SetInterruptHandler@InterruptHandler	PTR FTN()void  size(2) Largest target is 1
		 -> INT1_DefaultInterruptHandler(), my_Int1_Isr(), 

    TMR0_InterruptHandler	PTR FTN()void  size(2) Largest target is 1
		 -> my_antiflicker_isr(), TMR0_DefaultInterruptHandler(), NULL(), 

    TMR0_SetInterruptHandler@InterruptHandler	PTR FTN()void  size(2) Largest target is 1
		 -> my_antiflicker_isr(), TMR0_DefaultInterruptHandler(), 

    TMR2_InterruptHandler	PTR FTN()void  size(2) Largest target is 1
		 -> my_pwm_isr(), TMR2_DefaultInterruptHandler(), NULL(), 

    TMR2_SetInterruptHandler@InterruptHandler	PTR FTN()void  size(2) Largest target is 1
		 -> my_pwm_isr(), TMR2_DefaultInterruptHandler(), 

    TMR4_InterruptHandler	PTR FTN()void  size(2) Largest target is 1
		 -> my_fading_isr(), TMR4_DefaultInterruptHandler(), NULL(), 

    TMR4_SetInterruptHandler@InterruptHandler	PTR FTN()void  size(2) Largest target is 1
		 -> my_fading_isr(), TMR4_DefaultInterruptHandler(), 


Critical Paths under _main in COMRAM

    _main->_blinkFw
    _blinkFw->_my_delay
    _TMR4_Initialize->_TMR4_SetInterruptHandler
    _TMR2_Initialize->_TMR2_SetInterruptHandler
    _TMR0_Initialize->_TMR0_SetInterruptHandler
    _EXT_INT_Initialize->_INT1_SetInterruptHandler

Critical Paths under _INTERRUPT_InterruptManagerLow in COMRAM

    _TMR4_ISR->_my_fading_isr
    _TMR2_ISR->_my_pwm_isr

Critical Paths under _INTERRUPT_InterruptManagerHigh in COMRAM

    None.

Critical Paths under _main in BANK0

    None.

Critical Paths under _INTERRUPT_InterruptManagerLow in BANK0

    None.

Critical Paths under _INTERRUPT_InterruptManagerHigh in BANK0

    None.

Critical Paths under _main in BANK1

    None.

Critical Paths under _INTERRUPT_InterruptManagerLow in BANK1

    None.

Critical Paths under _INTERRUPT_InterruptManagerHigh in BANK1

    None.

Critical Paths under _main in BANK2

    None.

Critical Paths under _INTERRUPT_InterruptManagerLow in BANK2

    None.

Critical Paths under _INTERRUPT_InterruptManagerHigh in BANK2

    None.

Critical Paths under _main in BANK3

    None.

Critical Paths under _INTERRUPT_InterruptManagerLow in BANK3

    None.

Critical Paths under _INTERRUPT_InterruptManagerHigh in BANK3

    None.

Critical Paths under _main in BANK4

    None.

Critical Paths under _INTERRUPT_InterruptManagerLow in BANK4

    None.

Critical Paths under _INTERRUPT_InterruptManagerHigh in BANK4

    None.

Critical Paths under _main in BANK5

    None.

Critical Paths under _INTERRUPT_InterruptManagerLow in BANK5

    None.

Critical Paths under _INTERRUPT_InterruptManagerHigh in BANK5

    None.

Critical Paths under _main in BANK6

    None.

Critical Paths under _INTERRUPT_InterruptManagerLow in BANK6

    None.

Critical Paths under _INTERRUPT_InterruptManagerHigh in BANK6

    None.

Critical Paths under _main in BANK7

    None.

Critical Paths under _INTERRUPT_InterruptManagerLow in BANK7

    None.

Critical Paths under _INTERRUPT_InterruptManagerHigh in BANK7

    None.

Call Graph Tables:

 ---------------------------------------------------------------------------------
 (Depth) Function   	        Calls       Base Space   Used Autos Params    Refs
 ---------------------------------------------------------------------------------
 (0) _main                                                 6     6      0    3551
                                             25 COMRAM     6     6      0
           _INT1_SetInterruptHandler
                  _SYSTEM_Initialize
           _TMR0_SetInterruptHandler
                    _TMR0_StartTimer
                     _TMR0_StopTimer
           _TMR2_SetInterruptHandler
                 _TMR4_Period8BitSet
           _TMR4_SetInterruptHandler
                            _blinkFw
                           _my_delay
 ---------------------------------------------------------------------------------
 (1) _blinkFw                                              6     5      1    1086
                                             19 COMRAM     6     5      1
                           _my_delay
 ---------------------------------------------------------------------------------
 (1) _my_delay                                             6     4      2     806
                                             13 COMRAM     6     4      2
 ---------------------------------------------------------------------------------
 (1) _TMR4_Period8BitSet                                   1     1      0      15
                                             13 COMRAM     1     1      0
 ---------------------------------------------------------------------------------
 (1) _TMR0_StopTimer                                       0     0      0       0
 ---------------------------------------------------------------------------------
 (1) _TMR0_StartTimer                                      0     0      0       0
 ---------------------------------------------------------------------------------
 (1) _SYSTEM_Initialize                                    0     0      0     696
                 _EXT_INT_Initialize
               _INTERRUPT_Initialize
              _OSCILLATOR_Initialize
             _PIN_MANAGER_Initialize
                     _PMD_Initialize
                    _TMR0_Initialize
                    _TMR2_Initialize
                    _TMR4_Initialize
 ---------------------------------------------------------------------------------
 (2) _TMR4_Initialize                                      0     0      0     174
           _TMR4_SetInterruptHandler
 ---------------------------------------------------------------------------------
 (1) _TMR4_SetInterruptHandler                             2     0      2     174
                                             13 COMRAM     2     0      2
 ---------------------------------------------------------------------------------
 (2) _TMR2_Initialize                                      0     0      0     174
           _TMR2_SetInterruptHandler
 ---------------------------------------------------------------------------------
 (1) _TMR2_SetInterruptHandler                             2     0      2     174
                                             13 COMRAM     2     0      2
 ---------------------------------------------------------------------------------
 (2) _TMR0_Initialize                                      0     0      0     174
           _TMR0_SetInterruptHandler
 ---------------------------------------------------------------------------------
 (1) _TMR0_SetInterruptHandler                             2     0      2     174
                                             13 COMRAM     2     0      2
 ---------------------------------------------------------------------------------
 (2) _PMD_Initialize                                       0     0      0       0
 ---------------------------------------------------------------------------------
 (2) _PIN_MANAGER_Initialize                               0     0      0       0
 ---------------------------------------------------------------------------------
 (2) _OSCILLATOR_Initialize                                0     0      0       0
 ---------------------------------------------------------------------------------
 (2) _INTERRUPT_Initialize                                 0     0      0       0
 ---------------------------------------------------------------------------------
 (2) _EXT_INT_Initialize                                   0     0      0     174
           _INT1_SetInterruptHandler
 ---------------------------------------------------------------------------------
 (3) _INT1_SetInterruptHandler                             2     0      2     174
                                             13 COMRAM     2     0      2
 ---------------------------------------------------------------------------------
 Estimated maximum stack depth 3
 ---------------------------------------------------------------------------------
 (Depth) Function   	        Calls       Base Space   Used Autos Params    Refs
 ---------------------------------------------------------------------------------
 (4) _INTERRUPT_InterruptManagerLow                        7     7      0     274
                                              6 COMRAM     7     7      0
                           _TMR0_ISR
                           _TMR2_ISR
                           _TMR4_ISR
 ---------------------------------------------------------------------------------
 (5) _TMR4_ISR                                             0     0      0     244
                                NULL *
       _TMR4_DefaultInterruptHandler *
                      _my_fading_isr *
 ---------------------------------------------------------------------------------
 (6) _my_fading_isr                                        4     4      0     244
                                              2 COMRAM     4     4      0
 ---------------------------------------------------------------------------------
 (6) _TMR4_DefaultInterruptHandler                         0     0      0       0
 ---------------------------------------------------------------------------------
 (5) _TMR2_ISR                                             0     0      0      30
                                NULL *
       _TMR2_DefaultInterruptHandler *
                         _my_pwm_isr *
 ---------------------------------------------------------------------------------
 (6) _my_pwm_isr                                           4     4      0      30
                                              2 COMRAM     4     4      0
 ---------------------------------------------------------------------------------
 (6) _TMR2_DefaultInterruptHandler                         0     0      0       0
 ---------------------------------------------------------------------------------
 (5) _TMR0_ISR                                             0     0      0       0
                                NULL *
       _TMR0_DefaultInterruptHandler *
                 _my_antiflicker_isr *
 ---------------------------------------------------------------------------------
 (6) _my_antiflicker_isr                                   0     0      0       0
 ---------------------------------------------------------------------------------
 (6) _TMR0_DefaultInterruptHandler                         0     0      0       0
 ---------------------------------------------------------------------------------
 (10) NULL(Fake)                                           0     0      0       0
 ---------------------------------------------------------------------------------
 Estimated maximum stack depth 10
 ---------------------------------------------------------------------------------
 (Depth) Function   	        Calls       Base Space   Used Autos Params    Refs
 ---------------------------------------------------------------------------------
 (7) _INTERRUPT_InterruptManagerHigh                       2     2      0       0
                                              0 COMRAM     2     2      0
                           _INT1_ISR
 ---------------------------------------------------------------------------------
 (8) _INT1_ISR                                             0     0      0       0
                      _INT1_CallBack
 ---------------------------------------------------------------------------------
 (9) _INT1_CallBack                                        0     0      0       0
                                NULL *
       _INT1_DefaultInterruptHandler *
                        _my_Int1_Isr *
 ---------------------------------------------------------------------------------
 (10) _my_Int1_Isr                                         0     0      0       0
 ---------------------------------------------------------------------------------
 (10) _INT1_DefaultInterruptHandler                        0     0      0       0
 ---------------------------------------------------------------------------------
 (10) NULL(Fake)                                           0     0      0       0
 ---------------------------------------------------------------------------------
 Estimated maximum stack depth 10
 ---------------------------------------------------------------------------------

 Call Graph Graphs:

 _main (ROOT)
   _INT1_SetInterruptHandler
   _SYSTEM_Initialize
     _EXT_INT_Initialize
       _INT1_SetInterruptHandler
     _INTERRUPT_Initialize
     _OSCILLATOR_Initialize
     _PIN_MANAGER_Initialize
     _PMD_Initialize
     _TMR0_Initialize
       _TMR0_SetInterruptHandler
     _TMR2_Initialize
       _TMR2_SetInterruptHandler
     _TMR4_Initialize
       _TMR4_SetInterruptHandler
   _TMR0_SetInterruptHandler
   _TMR0_StartTimer
   _TMR0_StopTimer
   _TMR2_SetInterruptHandler
   _TMR4_Period8BitSet
   _TMR4_SetInterruptHandler
   _blinkFw
     _my_delay
   _my_delay

 _INTERRUPT_InterruptManagerLow (ROOT)
   _TMR0_ISR
     NULL(Fake) *
     _TMR0_DefaultInterruptHandler *
     _my_antiflicker_isr *
   _TMR2_ISR
     NULL(Fake) *
     _TMR2_DefaultInterruptHandler *
     _my_pwm_isr *
   _TMR4_ISR
     NULL(Fake) *
     _TMR4_DefaultInterruptHandler *
     _my_fading_isr *

 _INTERRUPT_InterruptManagerHigh (ROOT)
   _INT1_ISR
     _INT1_CallBack
       NULL(Fake) *
       _INT1_DefaultInterruptHandler *
       _my_Int1_Isr *

 Address spaces:
Name               Size   Autos  Total    Cost      Usage
BIGRAM             7FF      0       0      46        0.0%
BITBIGSFRlhhhhl    4DC      0       0      26        0.0%
BITBIGSFRllllll    183      0       0      44        0.0%
EEDATA             100      0       0       0        0.0%
BITBANK7           100      0       0      18        0.0%
BANK7              100      0       0      19        0.0%
BITBANK6           100      0       0      16        0.0%
BANK6              100      0       0      17        0.0%
BITBANK5           100      0       0      14        0.0%
BANK5              100      0       0      15        0.0%
BITBANK4           100      0       0      12        0.0%
BANK4              100      0       0      13        0.0%
BITBANK3           100      0       0      10        0.0%
BANK3              100      0       0      11        0.0%
BITBANK2           100      0       0       8        0.0%
BANK2              100      0       0       9        0.0%
BITBANK1           100      0       0       6        0.0%
BANK1              100      0       0       7        0.0%
BITBANK0            A0      0       0       4        0.0%
BANK0               A0      0      10       5       10.0%
BITBIGSFRllllhh     60      0       0      34        0.0%
BITCOMRAM           5F      0       0       0        0.0%
COMRAM              5F     1F      50       1       84.2%
BITBIGSFRlhhhl      3C      0       0      27        0.0%
BITBIGSFRhhh        2D      0       0      20        0.0%
BITBIGSFRllllll     18      0       0      38        0.0%
BITBIGSFRlhlh       15      0       0      29        0.0%
BITBIGSFRlllllh     11      0       0      37        0.0%
BITBIGSFRllllll      B      0       0      40        0.0%
BITBIGSFRllllll      B      0       0      42        0.0%
BITBIGSFRlllh        B      0       0      33        0.0%
BITBIGSFRhhlh        6      0       0      21        0.0%
BITBIGSFRlhhhhl      6      0       0      25        0.0%
BITBIGSFRlhhhhl      6      0       0      24        0.0%
BITBIGSFRhhll        6      0       0      22        0.0%
BITBIGSFRllhl        5      0       0      32        0.0%
BITBIGSFRlhll        5      0       0      30        0.0%
BITBIGSFRhl          5      0       0      23        0.0%
BITBIGSFRllhh        4      0       0      31        0.0%
BITBIGSFRlhhl        2      0       0      28        0.0%
BITBIGSFRllllll      1      0       0      39        0.0%
BITBIGSFRllllll      1      0       0      41        0.0%
BITBIGSFRllllll      1      0       0      43        0.0%
BITBIGSFRllllhh      1      0       0      35        0.0%
BITBIGSFRllllhl      1      0       0      36        0.0%
BIGSFR               0      0       0     200        0.0%
BITSFR_8             0      0       0     200        0.0%
SFR_8                0      0       0     200        0.0%
BITSFR_7             0      0       0     200        0.0%
SFR_7                0      0       0     200        0.0%
BITSFR_6             0      0       0     200        0.0%
SFR_6                0      0       0     200        0.0%
BITSFR_5             0      0       0     200        0.0%
SFR_5                0      0       0     200        0.0%
BITSFR_4             0      0       0     200        0.0%
SFR_4                0      0       0     200        0.0%
BITSFR_3             0      0       0     200        0.0%
SFR_3                0      0       0     200        0.0%
BITSFR_2             0      0       0     200        0.0%
SFR_2                0      0       0     200        0.0%
BITSFR_1             0      0       0     200        0.0%
SFR_1                0      0       0     200        0.0%
BITSFR               0      0       0     200        0.0%
SFR                  0      0       0     200        0.0%
STACK                0      0       0       2        0.0%
NULL                 0      0       0       0        0.0%
ABS                  0      0      60      45        0.0%
DATA                 0      0      60       3        0.0%
CODE                 0      0       0       0        0.0%


Microchip Technology PIC18 Macro Assembler V2.46 build 20240104201356 
Symbol Table                                                                                   Sun Jun 01 18:16:22 2025

                    ??_TMR4_Period8BitSet 0037          __end_of_TMR2_SetInterruptHandler 1240  
                                      l59 0F42                               _pwm_setting 0001  
                                     l110 11FA                                       l113 11C0  
                                     l107 11E2                                       l142 1260  
                                     l136 119C                                       l320 123E  
                                     l401 1234                                       l242 1212  
                                     l139 1264                                       l236 1252  
                                     l500 0F8A                                       l158 1248  
                                     l511 0E6C                                       l514 0EA0  
                                     l508 0E5C                                       l540 099C  
                                     l277 1150                                       l517 0EB0  
                                     l198 1220                                       l358 1124  
                                     l518 0EDA                                       l534 08E0  
                                     l391 122A                                       l551 0A34  
                                     l527 08CC                                       l544 09AE  
                                     l545 09C2                                       l529 08CE  
                                     l554 0A3A                                       l497 0F6C  
                                     _PR2 3FAB                                       _PR4 3F9F  
                                     u620 0F8A                                       u621 0F86  
                                     u800 09BE                                       u801 09BA  
                                     u650 0E54                                       u651 0E50  
                                     u660 0E8C                                       u820 0A16  
                                     u740 08A8                                       u661 0E88  
                                     u821 0A12                                       u741 08A4  
                                     u670 0ECE                                       u830 0A34  
                                     u814 09EE                                       u750 08FE  
                                     u671 0ECA                                       u831 0A30  
                                     u815 09E8                                       u751 08FA  
                                     u840 0A4E                                       u760 091C  
                                     u841 0A4A                                       u761 0914  
                                     u850 0A5E                                       u770 0930  
                                     u851 0A5A                                       u771 0928  
                                     u780 0942                                       u781 093C  
                                     u790 09AA                                       u791 09A6  
                                     u768 091E                                       u786 0944  
                                     u778 0932                                       u867 0F5A  
                         _TMR2_Initialize 1126                                       tosl 3FFD  
                                     wreg 3FE8                             _INT1_CallBack 10CC  
                                    l1261 0F32                                      l1263 0F34  
                                    l1255 0EDC                                      l1271 119E  
                                    l1273 11E4                                      l1265 0F36  
                                    l1257 0F2E                                      l1267 0F38  
                                    l1259 0F30                                      l1269 1214  
                                    l1701 1114                                      l1445 1262  
                                    l1711 1140                                      l1703 1120  
                                    l1447 125E                                      l1721 117A  
                                    l1713 114C                                      l1705 1126  
                                    l1801 0E78                                      l1715 11FC  
                                    l1723 1186                                      l1707 113A  
                                    l1811 0EAE                                      l1803 0E7A  
                                    l1717 1202                                      l1725 118A  
                                    l1709 113E                                      l1813 0EBC  
                                    l1805 0E8C                                      l1719 120E  
                                    l1727 118C                                      l1815 0EBE  
                                    l1807 0E92                                      l1911 0A1E  
                                    l1903 09D6                                      l1729 1198  
                                    l1761 11C2                                      l1497 1224  
                                    l1817 0ECE                                      l1809 0EA2  
                                    l1921 0A5E                                      l1913 0A26  
                                    l1905 09FC                                      l1841 0882  
                                    l1833 0846                                      l1691 1236  
                                    l1771 11D6                                      l1763 11C6  
                                    l1755 0F44                                      l1923 0A62  
                                    l1915 0A3C                                      l1907 0A08  
                                    l1851 0898                                      l1835 084A  
                                    l1693 122C                                      l1773 11DA  
                                    l1765 11CA                                      l1757 0F50  
                                    l1925 0A66                                      l1917 0A3E  
                                    l1909 0A16                                      l1861 08DC  
                                    l1853 08A8                                      l1837 084C  
                                    l1687 1240                                      l1695 10FA  
                                    l1775 11DE                                      l1767 11CE  
                                    l1759 0F68                                      l1791 0E2C  
                                    l1783 0E1C                                      l1919 0A4E  
                                    l1871 0906                                      l1863 08DE  
                                    l1847 0886                                      l1839 087E  
                                    l1689 124A                                      l1697 110E  
                                    l1769 11D2                                      l1793 0E44  
                                    l1785 0E28                                      l1881 0962  
                                    l1873 0908                                      l1865 08EC  
                                    l1849 0896                                      l1699 1112  
                                    l1795 0E54                                      l1883 096C  
                                    l1875 090A                                      l1867 08EE  
                                    l1859 08D0                                      l1797 0E5E  
                                    l1893 09C6                                      l1877 094E  
                                    l1869 08FE                                      l1799 0E6A  
                                    l1895 09CA                                      l1879 0958  
                                    l1887 0976                                      l1897 09D2  
                                    l1889 09AA                                      STR_1 0841  
                                    _LATA 3FBA                                      _LATB 3FBB  
                                    _LATC 3FBC                                      _T2PR 3FAB  
                                    _T4PR 3F9F                                      _PMD0 39C0  
                                    _PMD1 39C1                                      _PMD2 39C2  
                                    _PMD3 39C3                                      _PMD4 39C4  
                                    _PMD5 39C5                                      _PMD6 39C6  
                                    _PMD7 39C7                                      _TMR2 3FAA  
                                    _TMR4 3F9E                                      _WPUA 3A41  
                                    _WPUB 3A51                                      _WPUC 3A61  
                                    _WPUE 3A81                                      _main 0846  
                         _TMR0_StartTimer 1262                                      fsr2h 3FDA  
                                    indf2 3FDF                                      fsr2l 3FD9  
                      _old_clocks_counter 0021                                      prodl 3FF3  
                                    start 001C                ??_TMR4_SetInterruptHandler 0039  
                            ___param_bank 0000                   __end_of_TMR0_Initialize 119E  
                        __end_of_INT1_ISR 125E            ??_TMR0_DefaultInterruptHandler 002C  
           __end_of_OSCILLATOR_Initialize 11FC                                     ?_main 002A  
                                   _T2CON 3FAC                                     _T4CON 3FA0  
                                   _T2HLT 3FAD                                     _T4HLT 3FA1  
                                   i1l210 0DA8                                     i1l212 0DCC  
                                   _T2TMR 3FAA                                     i1l213 0DF0  
                                   i1l216 0DF0                                     i1l161 126A  
                                   _T2RST 3FAF                                     i1l155 109C  
                                   i1l323 1268                                     i1l404 1266  
                                   i1l317 106A                                     _T4TMR 3F9E  
                                   i2l205 0FFA                                     i1l462 0FCA  
                                   i1l471 0D56                                     i2l233 10F8  
                                   i1l458 0FC2                                     _T4RST 3FA3  
                                   i2l229 125C                                     i1l494 0C80  
                                   i1l398 1038                                     i2l239 126C  
                                   i2l452 1172                                     i2l455 1178  
                                   _OSCEN 39DD                                     _TMR0H 3FB7  
                                   _TMR0L 3FB6                                     _TRISA 3FC2  
                                   _TRISB 3FC3                                     _TRISC 3FC4  
                         _TMR4_Initialize 10FA                           __end_of_blinkFw 0EDC  
               ?_TMR0_SetInterruptHandler 0037                          __end_of_TMR0_ISR 109E  
                        __end_of_TMR2_ISR 106C                          __end_of_TMR4_ISR 103A  
                          ?_INT1_CallBack 002A               TMR4_Period8BitSet@periodVal 0037  
          ??_INT1_DefaultInterruptHandler 002A                                     main@i 0048  
                _INT1_SetInterruptHandler 124A                                     pclath 3FFA  
                                   pclatu 3FFB                                     tablat 3FF5  
                                   status 3FD8                              ?_my_Int1_Isr 002A  
          ?_INTERRUPT_InterruptManagerLow 002A                          main@fading_level 0046  
                         __initialization 109E                              __end_of_main 0A70  
                 __end_of_TMR2_Initialize 1152                  _TMR2_SetInterruptHandler 1236  
                                  ??_main 0043                             __activetblptr 0002  
                 __end_of_TMR0_StartTimer 1266                                    _ANSELA 3A40  
                                  _ANSELB 3A50                                    _ANSELC 3A60  
                                  _T0CON0 3FB8                                    _T0CON1 3FB9  
                                  _RB1I2C 3A5A                                    _RB2I2C 3A5B  
                                  _RC3I2C 3A6A                                    _RC4I2C 3A6B  
                                  i1l1321 0FBC                                    i1l1401 0BFE  
                                  i1l1315 0F8C                                    i1l1411 0C56  
                                  i1l1403 0C1A                                    i1l1317 0FA4  
                                  i1l1421 0C7E                                    i1l1413 0C58  
                                  i1l1405 0C1C                                    i1l1319 0FAC  
                                  i1l1415 0C5E                                    i1l1407 0C38  
                                  i1l1351 0A94                                    i1l1417 0C64  
                                  i1l1409 0C3A                                    i1l1361 0AD2  
                                  i1l1353 0A96                                    _ODCONA 3A42  
                                  _ODCONB 3A52                                    i1l1451 1070  
                                  i1l1419 0C76                                    i1l1371 0B2A  
                                  i1l1363 0AEE                                    i1l1355 0AB2  
                                  i1l1347 0A70                                    _ODCONC 3A62  
                                  i1l1453 1082                                    i1l1381 0B68  
                                  i1l1373 0B2C                                    i1l1365 0AF0  
                                  i1l1357 0AB4                                    i1l1349 0A78  
                                  i1l1461 103E                                    i1l1391 0BC0  
                                  i1l1383 0B84                                    i1l1375 0B48  
                                  i1l1367 0B0C                                    i1l1359 0AD0  
                                  i1l1463 1050                                    i1l1449 106C  
                                  i1l1393 0BC2                                    i1l1385 0B86  
                                  i1l1377 0B4A                                    i1l1369 0B0E  
                                  i1l1395 0BDE                                    i1l1387 0BA2  
                                  i1l1379 0B66                                    i1l1459 103A  
                                  i1l1731 0C82                                    i1l1397 0BE0  
                                  i1l1389 0BA4                                    i1l1741 0CD6  
                                  i1l1821 0D92                                    i1l1399 0BFC  
                                  i1l1743 0CE0                                    i1l1751 0D44  
                                  i1l1831 0DE8                                    i1l1823 0DA0  
                                  i1l1753 0D46                                    i1l1745 0D1C  
                                  i1l1737 0C86                                    i1l1825 0DB6  
                                  i1l1747 0D36                                    i1l1739 0CBE  
                                  i1l1827 0DC4                                    i1l1819 0D82  
                                  i1l1781 101E                                    i1l1829 0DDA  
                                  i2l1311 10CC                                    i2l1313 10DE  
                                  i1l1777 1008                                    i2l1251 1170  
                                  i1l1779 100C                                    i2l1253 1176  
                                  i2l1245 1152                                    i2l1247 115C  
                                  i2l1249 116A                                    i2l1541 0FD8  
                                  i2l1455 1254                                    i2l1543 0FE8  
                                  i2l1457 1258                                    i2l1545 0FF6  
                                  _INLVLA 3A44                                    _INLVLB 3A54  
                                  _INLVLC 3A64                                    _INLVLE 3A84  
                                  _OSCFRQ 39DF                                    i1u4_20 0FA4  
                                  i1u4_21 0FA0                                    i2u1_40 116A  
                                  i2u1_41 1166                                    i2u2_40 10DE  
                                  i2u2_41 10DA                                    i2u3_48 10E4  
                                  i2u3_49 10F8                     __end_of_my_fading_isr 0D58  
              __end_of_my_antiflicker_isr 0FCC                          ?_TMR0_Initialize 002A  
                 __end_of_TMR4_Initialize 1126                                    clear_0 10A4  
                                  clear_1 10B0                                 ??_blinkFw 003E  
                                  isa$std 0001      __end_of_TMR4_DefaultInterruptHandler 1268  
            _TMR4_DefaultInterruptHandler 1266                          __end_of_my_delay 0F8C  
                          _PMD_Initialize 119E                           ??_INT1_CallBack 002A  
                            __mediumconst 0000                                    tblptrh 3FF7  
                                  tblptrl 3FF6                                    tblptru 3FF8  
TMR4_SetInterruptHandler@InterruptHandler 0037  TMR2_SetInterruptHandler@InterruptHandler 0037  
INT1_SetInterruptHandler@InterruptHandler 0037  TMR0_SetInterruptHandler@InterruptHandler 0037  
        ??_INTERRUPT_InterruptManagerHigh 002A           ?_INTERRUPT_InterruptManagerHigh 002A  
                       _SYSTEM_Initialize 11C2                                __accesstop 0060  
                 __end_of__initialization 10C2                                 ?_INT1_ISR 002A  
                      ?_SYSTEM_Initialize 002A                             ___rparam_used 0001  
                          __pcstackCOMRAM 002A                       ??_SYSTEM_Initialize 0039  
                               ?_TMR0_ISR 002A                                 ?_TMR2_ISR 002A  
                               ?_TMR4_ISR 002A                          ?_TMR2_Initialize 002A  
                          blinkFw@version 003D                    __end_of_PMD_Initialize 11C2  
           ?_TMR4_DefaultInterruptHandler 002A                          ?_TMR0_StartTimer 002A  
               __end_of_SYSTEM_Initialize 11E4                                __pbssBANK0 0060  
                              ??_INT1_ISR 002A                                __pnvCOMRAM 0049  
                   _TMR4_InterruptHandler 0049                                   IVTBASEH 3FD6  
                                 IVTBASEL 3FD5                                   IVTBASEU 3FD7  
        __end_of_TMR0_SetInterruptHandler 124A                                ??_TMR0_ISR 002C  
                              ??_TMR2_ISR 0030                                ??_TMR4_ISR 0030  
                         my_fading_isr@io 002F                          ?_TMR4_Initialize 002A  
                         ?_PMD_Initialize 002A                ??_INT1_SetInterruptHandler 0039  
                                 _INT1PPS 3AC1                                   _OSCCON1 39D9  
                                 _OSCCON3 39DB                                   i1u10_20 0A94  
                                 i1u10_21 0A90                                   i1u11_20 0AB2  
                                 i1u11_21 0AAE                                   i1u20_20 0BC0  
                                 i1u12_20 0AD0                                   i1u20_21 0BBC  
                                 i1u12_21 0ACC                                   i1u21_20 0BDE  
                                 i1u13_20 0AEE                                   i1u21_21 0BDA  
                                 i1u13_21 0AEA                                   i1u22_20 0BFC  
                                 i1u14_20 0B0C                                   i1u30_20 1050  
                                 i1u22_21 0BF8                                   i1u14_21 0B08  
                                 i1u30_21 104C                                   i1u23_20 0C1A  
                                 i1u15_20 0B2A                                   i1u23_21 0C16  
                                 i1u15_21 0B26                                   i1u24_20 0C38  
                                 i1u16_20 0B48                                   i1u31_28 1056  
                                 i1u24_21 0C34                                   i1u16_21 0B44  
                                 i1u31_29 106A                                   i1u25_20 0C56  
                                 i1u17_20 0B66                                   i1u25_21 0C52  
                                 i1u17_21 0B62                                   i1u26_20 0C76  
                                 i1u18_20 0B84                                   i1u26_21 0C72  
                                 i1u18_21 0B80                                   i1u19_20 0BA2  
                                 i1u19_21 0B9E                                   i1u28_20 1082  
                                 i1u60_20 0D36                                   i1u28_21 107E  
                                 i1u60_21 0D32                                   i1u61_20 0D56  
                                 i1u61_21 0D52                                   i1u29_28 1088  
                                 i1u70_20 0DB6                                   i1u29_29 109C  
                                 i1u70_21 0DB2                                   i1u63_20 101E  
                                 i1u71_20 0DC4                                   i1u63_21 101A  
                                 i1u71_21 0DC0                                   i1u72_20 0DDA  
                                 i1u72_21 0DD6                                   i1u64_28 1024  
                                 i1u73_20 0DE8                                   i1u64_29 1038  
                                 i1u73_21 0DE4                                   i1u57_24 0C9E  
                                 i1u57_25 0C98                                   i1u58_20 0CBE  
                                 i1u58_21 0CBA                                   i1u59_20 0CD6  
                                 i1u59_21 0CD2                                   i1u68_20 0D92  
                                 i1u68_21 0D8E                                   i1u69_20 0DA0  
                                 i1u69_21 0D9C                                   i2u37_40 0FE8  
                                 i2u37_41 0FE4                                   i2u38_40 0FF6  
                                 i2u38_41 0FF2                                   _OSCTUNE 39DE  
                                 _SLRCONA 3A43                                   _SLRCONB 3A53  
                                 _SLRCONC 3A63                         my_pwm_isr@pwm_cnt 0029  
                                 __Hparam 0000                                 ?_my_delay 0037  
                                 __Lparam 0000                ??_TMR2_SetInterruptHandler 0039  
                             my_delay@val 0037                                _lampstatus 0025  
                            __psmallconst 0800                                   __pcinit 109E  
                                 __ramtop 0800                                   _blinkFw 0E1C  
                                 __ptext0 0846                                   __ptext1 0E1C  
                                 __ptext2 0F44                                   __ptext3 1222  
                                 __ptext4 125E                                   __ptext5 1262  
                                 __ptext6 11C2                                   __ptext7 10FA  
                                 __ptext8 122C                                   __ptext9 1126  
                   _OSCILLATOR_Initialize 11E4                                 _T2CONbits 3FAC  
                               _T4CONbits 3FA0                  ??_PIN_MANAGER_Initialize 0037  
                               _T2HLTbits 3FAD                 ?_TMR4_SetInterruptHandler 0037  
                               _T4HLTbits 3FA1                      end_of_initialization 10C2  
                               _T2RSTbits 3FAF            ??_TMR4_DefaultInterruptHandler 002C  
                               _T4RSTbits 3FA3                             __Lmediumconst 0000  
                              blinkFw@pos 0042                                ??_my_delay 0039  
                                 postdec2 3FDD                                   postinc0 3FEE  
                                 postinc2 3FDE                         __end_of_pwm_table 0841  
                              _my_pwm_isr 0A70                  _TMR0_SetInterruptHandler 1240  
                   _INT1_InterruptHandler 004D                                 _PORTBbits 3FCB  
                      _my_antiflicker_isr 0F8C                       ?_my_antiflicker_isr 002A  
                          _TMR0_StopTimer 125E              __end_of_INTERRUPT_Initialize 1222  
    __end_of_TMR2_DefaultInterruptHandler 126A              _TMR2_DefaultInterruptHandler 1268  
                    ??_my_antiflicker_isr 002C                    ?_OSCILLATOR_Initialize 002A  
                     start_initialization 109E                     __end_of_INT1_CallBack 10FA  
                              ivt0x8_base 0008                    __end_of_TMR0_StopTimer 1262  
                        ??_PMD_Initialize 0037                               ?_my_pwm_isr 002A  
              __end_of_EXT_INT_Initialize 1214             ?_TMR2_DefaultInterruptHandler 002A  
                             __pbssCOMRAM 0001                             ??_my_Int1_Isr 002A  
                   _TMR0_InterruptHandler 004F                             _my_fading_isr 0C82  
                         ?_TMR0_StopTimer 002A                __end_of_TMR4_Period8BitSet 122C  
                  _PIN_MANAGER_Initialize 0EDC          __end_of_TMR4_SetInterruptHandler 1236  
                                ?_blinkFw 003D                               __smallconst 0800  
                          _clocks_counter 0023                                  _T2CLKCON 3FAE  
                                _T4CLKCON 3FA2                      _INTERRUPT_Initialize 1214  
                       ??_TMR0_Initialize 0039                                  _INT1_ISR 1254  
                                _LATBbits 3FBB                            ?_my_fading_isr 002A  
               ?_INT1_SetInterruptHandler 0037                                  _IPR3bits 3983  
                                _IPR4bits 3984                                  _PIE3bits 3993  
                                _IPR5bits 3985                                  _PIE4bits 3994  
                                _IPR7bits 3987                                  _PIE5bits 3995  
                                _PIE7bits 3997                ??_TMR0_SetInterruptHandler 0039  
                                _PIR3bits 39A3                                  _PIR4bits 39A4  
                                _PIR5bits 39A5                                  _PIR7bits 39A7  
                     __end_of_my_Int1_Isr 117A                                  _TMR0_ISR 106C  
                                _TMR2_ISR 103A                                  _TMR4_ISR 1008  
                               _pwm_table 0801                                 _pwm_phase 0060  
          ??_TMR2_DefaultInterruptHandler 002C                 ?_TMR2_SetInterruptHandler 0037  
                             _INTCON0bits 3FD2                     ?_INTERRUPT_Initialize 002A  
                       ??_TMR2_Initialize 0039                                  __Hrparam 0000  
                                __Lrparam 0000                   ??_OSCILLATOR_Initialize 0037  
                       ??_TMR0_StartTimer 0037                              blinkFw@blink 0040  
                            blinkFw@pause 003F                  _TMR4_SetInterruptHandler 122C  
                              _T0CON0bits 3FB8           ??_INTERRUPT_InterruptManagerLow 0030  
                                __pivt0x8 0008                                  __ptext10 1236  
                                __ptext11 117A                                  __ptext20 1008  
                                __ptext12 1240                                  __ptext21 1266  
                                __ptext13 119E                                  __ptext30 1254  
                                __ptext22 0C82                                  __ptext14 0EDC  
                                __ptext31 10CC                                  __ptext23 103A  
                                __ptext15 11E4                                  __ptext32 126C  
                                __ptext24 1268                                  __ptext16 1214  
                                __ptext33 1152                                  __ptext25 0A70  
                                __ptext17 11FC                                  __ptext26 106C  
                                __ptext18 124A                                  __ptext27 126A  
                                __ptext19 0D58                                  __ptext28 0F8C  
                                __ptext29 0FCC                                  _lampdata 0027  
                         ??_my_fading_isr 002C                                 my_delay@i 003B  
                       ??_TMR4_Initialize 0039                               _my_Int1_Isr 1152  
    __end_of_TMR0_DefaultInterruptHandler 126C              _TMR0_DefaultInterruptHandler 126A  
                                _my_delay 0F44                                  isa$xinst 0000  
                            ??_my_pwm_isr 002C                                  main@mode 0047  
    __end_of_INT1_DefaultInterruptHandler 126E              _INT1_DefaultInterruptHandler 126C  
                  ??_INTERRUPT_Initialize 0037                        _EXT_INT_Initialize 11FC  
                             blinkFw@nval 0041                                  intlevel1 0000  
                                intlevel2 0000                          ??_TMR0_StopTimer 0037  
                 ?_PIN_MANAGER_Initialize 002A                            my_pwm_isr@tmp1 002E  
                          my_pwm_isr@tmp2 002F                        __end_of_my_pwm_isr 0C82  
                     ?_EXT_INT_Initialize 002A             ?_TMR0_DefaultInterruptHandler 002A  
  __end_of_INTERRUPT_InterruptManagerHigh 1008            _INTERRUPT_InterruptManagerHigh 0FCC  
                      _TMR4_Period8BitSet 1222                      ??_EXT_INT_Initialize 0039  
           ?_INT1_DefaultInterruptHandler 002A                           _TMR0_Initialize 117A  
        __end_of_INT1_SetInterruptHandler 1254                       ?_TMR4_Period8BitSet 002A  
   __end_of_INTERRUPT_InterruptManagerLow 0E1C             _INTERRUPT_InterruptManagerLow 0D58  
          __end_of_PIN_MANAGER_Initialize 0F44                     _TMR2_InterruptHandler 004B  
